1627	0	312647	2884309	nr	lee koo (admin)	10/17/08 11:17 am	1.22424222e12	poll: how old is your current main computer?	how old is your current main computer? - it's brand-spanking-new (what do you have?) - less than a year old (what do you have?) - 1 year (what do you have?) - 2 years (what do you have?) - 3 years (what do you have?) - 4 years (what do you have?) - 5 years (what do you have?) - 6 or more years (what do you have?) - it's so old i'm embarrassed to say (what do you have?)
1627	1	312647	2884460	2884309	steven haninger	10/17/08 2:51 pm	1.22425506e12	5 year old home built	still runs fine for what i do....which isn't much of anything worthwhile.
1627	2	312647	2884634	2884309	silvertop	10/17/08 8:42 pm	1.22427612e12	out with the old, in with the new	last may i decided to build a new system. i have been an amd man for many years but with the intel duo e8400 coming out i switched. so now i have an intel core2 duo e8400 dual running at 3.0 ghz with 2 gigs of pc2-8500 dual channel ram. the motherboard is a gigabyte p35-ds3l. i kept my old 500gig sata2 seagate and my antec case, lg dvd drive and 650w power supply. i also kept my nvida gforce 7300 512m video card. what a difference between my old overclocked amd x2 4800 running at 2.6 ghz and the new intel. i hate to admit it but i was wrong all these years about amd being the best. intel rules. oh well we learn by doing.
1627	3	312647	2884618	2884309	nerv2010	10/17/08 8:43 pm	1.22427618e12	spanking new	hp xw6400 workstation. going to work with my older custom 3 yr old box.
1627	4	312647	2884637	2884309	bskoros	10/17/08 8:49 pm	1.22427654e12	poll: how old is your current main computer?	about six months ago my p4, 3 gig mobo went south for the second time, so i decided it was time for a new system. went with a core 2 quad, 2.4 gig, 4 gig ram, vista business, duel nvida 8800 gt's (sli) with duel acer 22&quot; widescreen lcd's. originally i went with a creative audigy card but recently switched to a razor instead. love it! bill
1627	5	312647	2884638	2884309	beinghappysucks	10/17/08 8:49 pm	1.22427654e12	laptop	i'm a college kid. this is the laptop i got from my boarding school 2 years ago. can't really afford to replace it and it runs ubuntu fine. i would want to switch more if i gamed, but i do not.
1627	6	312647	2884639	2884309	kaptainzero	10/17/08 8:52 pm	1.22427672e12	just turned 2	i bought mine off ubid.com refurbished and got a bigger power supply and a new graphics card. the whole thing cost me about $800 and can play any of today's games on max settings perfectly (except crysis, that's not fair). does everything with zero problems, i installed vista ultimate with no slowdown. i completely reformat it every 2 months or so to keep it running fast.
1627	7	312647	2884641	2884309	websquad	10/17/08 9:01 pm	1.22427726e12	one fairly new; three older	main machine is win xp/pro sp3 i had built in feb'08: indel core 2 quad 6600, evga nfource 780i mb, 2x2gb pc-6400 ram, nvidia geforce video with 512mb, sli capable, pair of wd raptor x's in raid-1 for sys/programs; pair of wd caviar 500gb in raid-1 for data, cooler master case + ps; floppy; modem, dvd. have a ~7 year old hp laptop ... adequate because i require so little of it. also an old compaq driven by linux/ubuntu and a mac powerpc g4 with os-x 10.4. do web development on the xp/pro machine, use the others to check web compatibility and to play with. new machine can be overclocked and the socket will take several cpu upgrades. waiting for windows 7 to spring for 64-bit computing. as is, am pleased with configurations.
1627	8	312647	2884642	2884309	electricseashell	10/17/08 9:03 pm	1.22427738e12	- 6 or more years -ibm thinkpad a20p	ibm thinkpad a20p not enough ram and keys are worn but it still runs.. i traveled around the us with it for two years and then coffee shop visits for 3 more. i bought it when it was at least a year old and refurbished. it had to have the hard drive replaced while under warranty but really hasn't given me too much trouble until i tried to run windows xp.
1627	9	312647	2884644	2884309	ron geiken	10/17/08 9:08 pm	1.22427768e12	my newest computer is about 15 months old.	the computer was built by a custom house in new york, and has a q6600 quad processor, 4 gig of ram and 3 internal hard drives. i had windows vista installed and microsoft office small business. i have also added tons of other things too. i use pinnacle studio 10 on it, and it is really a pleasure to do video editing with a quad processor and 4 gig of ram. it works smooth as silk. i also have nero 8 installed too. i use firefox 3 with thunderbird 2. also have adobe reader, irfanview, picasa 3, hypersnap 6 which is a windows capture program, also i tunes and quick time. i have three other browser including ie7 which i never use. i use zone alarm and avg 8 both free programs for security. there are also several other support type programs installed. best computer that i have ever owned. spared no expense to have what i wanted. i also have memeo as a back up program for my 750 western digital free agent drive. i also have a nice array of vista gadget programs sitting on the right side of my 24&quot; wide screen samsung monitor.
1627	10	312647	2884661	2884309	tropj	10/17/08 9:16 pm	1.22427816e12	age of computer	my primary computer is less than a year old - a dell xps210. secondary computer is also less than a year old - a dell latitude d830 laptop. purchased both because i wanted to get a new desktop and new laptop with windows xp while it was still available and avoid changing to vista.
1627	11	312647	2884666	2884309	leo o fortugaleza	10/17/08 9:31 pm	1.22427906e12	six year old desk tops	i am not ashamed to say i have three six year old desktops with windows xp as os. after tweaking similarly aged pcs owned by friends & neighbors, i learned that it is a matter of optimizing one's pc that he gets the best out of it. even six-year old pcs can come to life like new if the proper tweaks, software & hardware, are made. a friend of mine had a windows vista but because he knew little found himself complaining his pc is slow. when i did the usual tweaking i do, i found out he could not achieve the speeds that his pc had because he did not take good care of it. some of the software i have tried that worked includes atf cleaner, ccleaner, ncleaner and tune up utilities.
1627	12	312647	2884675	2884309	jannij	10/17/08 9:54 pm	1.22428044e12	4 yo home built	the ol' gal keeps chugging along, though it's become time to build a new one: custom modded antec sx1040 case antec 550watt power supply abit nf7-s v2 nvidia nf-2 ultra-400 motherboard amd athlon-xp 3200 - 400fsb cpu scythe kantana heatsink/fan 2 x 1 gbs corsair xms pc3500 cas2 ram ati radeon x800 xt 512mb agp on board nvidia sound storm on board nvidia 10/100 nic high point rocket raid 454 2 wd 160gb hdds in raid 0 1 wd 500gb hdd in a removable hdd frame asus dvd_e616a3 dvd-rom lite-on lh-20a1h lite scribe dvd-r/rw drive super multi drive combo floppy/memory card drive wintv-pvr pci-350 tv tuner/recorder fm radio card running win-98se2me, windows xp-pro, and freespire linux in a tri-boot setup.
1627	13	312647	2884690	2884309	santuccie	10/17/08 9:58 pm	1.22428068e12	it's about 3 months old	the computer i use most of the time (and the one i am using right now) is a gateway laptop that i got in july for $400 off the regular price. it has a core 2 duo t5600, and 3 gb of pc2-5300 ddr2, running vista home premium. i hated vista until i got this unit. the fact that it came with service pack 1 helped (i still refuse to touch 64-bit vista), as does this machine's power. i have two other computers of my own, one of which came with vista home premium, and the other with home basic. both of them are now running xp pro, because i couldn't stand the performance and instability. even downloading sp1 fixed nothing; it doesn't seem to do any good unless it comes pre-installed. one is 2 years old, and the other about 1 year old.
1627	14	312647	2884678	2884309	foxygrandma	10/17/08 10:01 pm	1.22428086e12	how old is your current main computer	about 3-1/2 years old. it is a dell dimension 4700 and always problems ever since i have had it.
1627	15	312647	2884694	2884639	mwooge	10/17/08 10:30 pm	1.2242826e12	reformat!?	you reformat every two months? how much do you have in your hd? i should think if you have much of anything you'd lose stuff that didn't re-load properly.
1627	16	312647	2884726	2884309	codaman12	10/17/08 10:41 pm	1.22428326e12	home	built amd athlon 2400+, 768 mb pc2100, 200 gb total hd and a vision tek radeon oc 1300xge 512 mb graphics card. sony 4x dvd r/rw. win xp and is about 6 years old. wife has a compaq 4000 series. celeron 1300, 512 mb ram, win xp 40 gb hard drive w/cd/rw. it has a 128 mb ati graphics card. once you get past the 5 min. boot up, it runs well and never has had a problem. about 7 years old.
1627	17	312647	2884715	2884309	anime4christ	10/17/08 10:44 pm	1.22428344e12	4 years - sony vaio vgc-ra710g	i think i need to upgrade to a new pc, but it's still running fine and i don't have enough money to upgrade at the moment. i replaced the dvd-rom and repaired the dvd burner. replaced the hard drive after it started failing. and upgraded the ram to 2gb (max). other than that, it's been running fine and is fully compatibe with: windows xp and vista linux (any distro i threw at it) and mac os x leopard (small hacker experiment that lasted a few weeks)
1627	18	312647	2884728	2884309	jlrowe	10/17/08 10:55 pm	1.2242841e12	2 months old!	3 months ago decided to see what i could assemble for under 400. so after about month of comparing prices, specs and looking for free shipping on parts from newegg and computergeeks.com heres what came up with for 394.00. 600 watt power supply biostar am740g m2+ motherboard with onboard nvidia graphics amd phenom 8450 2.1 triple core 4gig of ocz platinum seagate 320gig sata hd lg dvd sata burner secure disk and leadtek tv2000 expert pci tv tuner/video capture card saved money on case because had emachines black and silver micro atx laying around. not bad for under 400. definitely better than off the shelf system for same price.
1627	19	312647	2884722	2884309	mainspark	10/17/08 11:12 pm	1.22428512e12	how old is old?	my present machine is four years old and does everything i want it to do. i would maybe up-date my machine but amd not completely sure that &quot;vista&quot; is for me. maybe someone out there could convince me otherwise and let me know the obvious advantages of doing so?
1627	20	312647	2884797	2884309	ellis feigenbaum	10/18/08 1:53 am	1.22429478e12	under 6 months	i decided with the advent of walking talking grandchildren, i needed something i could do video editing on as well as work so i built a relative monster. started with am intel dx38bt motherboard, combined that with 4g of ddr3 memoryand q6600 cpu added a pair of ati 3800`s in crossfire, added a pvr 3000 video/tv card and 2 300g hdd`s and dual dvd drives with a memory card reader, all in chakra case. put the whole thing together with 2 asus pw19 monitors(the most sexy looking monitors in my opinion ever) and just for good measure and good looks a dinovo edge keyboard and an mx revolution mouse. the black beauty runs on vista ultimate sp1, and i have never had any problems with it.i would also imagine that unless it gets stolen this machine will see me well through the next windows os, with the possible exception of upgrading the cpu to a q900 series.
1627	21	312647	2884775	2884309	melvynlaycock	10/18/08 2:05 am	1.2242955e12	my notebook is 6 months old	i have an acer dual core notebook with 2gb ram running vista home premimum. i am very happy with this machine.
1627	22	312647	2884798	2884309	flirkann	10/18/08 2:09 am	1.22429574e12	less than a year	it's a toshiba satellite a200-s01 acquired in january - 2.2ghz c2d, 2gb ddr2-667, 2x160gb drives, hd-rom/dl burner, a/b/g wifi, 512mb hd-2600 mobile video chipset, and thoroughly exorcised of vista - xp sp3 with help from driverpacks.net and nlite. battery life is...rather pitiful when compared to the ibook i refurbished - granted the ibook used no more than 45w at full power, the c2d cpu uses that much power itself - but i got it because of it's gaming ability.
1627	23	312647	2884780	2884309	jim manchester	10/18/08 2:40 am	1.2242976e12	what computer do you have?	a week ago i bought a used desktop dell from a dealer for 50 (gbp). i don't know its age, but it's probably 4 to 6 years. it has windows xp professional. i wanted a change because my previous machine had windows me. the new purchase has 512mb ram and a 40gb disk. it doesn't have a cd burner, but i could have had one for a few pounds more. i use my computer mainly for web browsing, word processing and radio streaming. it plays video, but i don't use that function much. i wondered whether i should risk 50 on what could turn out to be a waste of money. it has turned out to be one of the best bargains i've ever had. my old pc wouldn't accept the data transfer wizard, but i tranferred most stuff i needed with a 1gb flash drive, and emailed other stuff to myself. pictures can also be stored on a photo processing site, then downloaded to a different computer. there's a way round any problem. i've done a free online virus check on my new buy. everything's fine. unless you want the latest bells and whistles, a second-hand pc seems to be a great buy.
1627	24	312647	2884781	2884309	patrickrsghost	10/18/08 2:41 am	1.22429766e12	6-year-old dell	go ahead and laugh. i have a six-year-old dell dimension 2300 with an intel celeron 1.8 ghz processor and windows xp. i still have a 3.5&quot; floppy drive (do they still make those? do people even *use* them anymore?), but i haven't used it in ages. the only upgrades i've made to it are adding 1 gb ram to the memory, and an external dvd-rw drive. the thing still chugs along pretty well, but i'm thinking of upgrading very soon, once finances to do so become more available.
1627	25	312647	2884783	2884309	m7842g	10/18/08 2:59 am	1.22429874e12	6+ years old	dell dimension 8200 running win xp sp3, office xp, etc.. now looking ahead 18-24 months to win 7, sp1 (probably 64-bit) for new pc and replacement of legacy peripherals and s-ware.
1627	26	312647	2884784	2884309	dgn1956	10/18/08 3:01 am	1.22429886e12	sony viao	sony viao on 3rd hard drive. pentium 4 3.06ghz, gig of ram (maxium for this pc), 250 gig hard drive. use an apc ups. not sure now if bought in 03 or 04.
1627	27	312647	2884816	2884309	njgoodliffe	10/18/08 3:08 am	1.22429928e12	2 year old pc	built by small pc company gmt compters ltd. 2gb memory. o/s windows xp home. works well - bit slow at times. have added another internal drive plus an external drive for backup.
1627	28	312647	2884817	2884309	dave-shaz	10/18/08 3:15 am	1.2242997e12	my new rig	i had build my first gaming rig its great my first pc was a 3200 amd 3gig ram os xp pro and now the os is vista ultimate 64 bit very nice os dx-10 ga-x48t-dq6 mb q9550 cpu twin3x4090-1600c7dhx ram 2x 500 gig hdd his-hd4870x2 gpu 2 extra zalman 12mm fans pioneer dvd sata antec true power quattro 1000wt thermal take armor + case and it was worth every $$$$ a very great gaming machine if any one is looking to build a new rig i will highly recommend this set up.sometime in 2010 or sooner the x58 mb will be coming out now that's a mother board wow check it out
1627	29	312647	2884819	2884309	madnut1	10/18/08 3:15 am	1.2242997e12	how old	as old as the dinosaurs? i have an old ibm netvista p3 with 512meg ram raddon vid card, evicta 5.1 sound card it works!!!!
1627	30	312647	2884832	2884309	riker_1	10/18/08 4:18 am	1.22430348e12	home build	intel 2.6 quad cpu 4 gig memory zotac nvidia 280 graphics card 2 striped/raided 75 gig drives just for windows to sit on 2 250 gig hdd for games to sit on 2 ext turnal 1t hdd water cooled goes like the wind and super cool even on so called super games , grid crysis all cool at 40 even with house temp in baking mode ...
1627	31	312647	2884836	2884819	exsencon	10/18/08 4:26 am	1.22430396e12	how old	i got two dell computers almost two years ago (yes,i know) dell desktop dimension 520 p4 3ghz 2gbram 2hd 320gb nvidia graphics dell laptop inspiron 1501 2gb ram 120gb hd radeon xpress graphics i must say both machines perform quiet well taking into account some of the dell particulars. they both came with winxp prof installed and after looking around i decided against win vista and went for linux instead. very good experience (after some initial trial and error stuff)running smoothly on a multiboot between winxp and 14 linuxes divided between the two pc's. happy man!
1627	32	312647	2884875	2884309	terrierterrornh	10/18/08 4:59 am	1.22430594e12	10 months and counting	10 month old acer aspire 5520 laptop runin vista home premium with 4gb of ram. love it!! and i have left xp behind as of this week. i can do everything i used in xp on the vista.
1627	33	312647	2884873	2884309	earthrabbit39	10/18/08 5:23 am	1.22430738e12	how old is my main computer-5 years	my dell inspiron 8600 was shipped 11/10/03..using xp..mostly e-mail, photo, voip.......computer had a serious melt down while under an extended warranty and dell came to the house to repair it ........after 18 trips to italy, 3 to the dominican republic, plus thousand of hours of use at home i am starting to get worried.....and while this computer has served me extremely well i'm not sure which computer to purchase in the near future.......a new one is out there waiting for me ....just have to do the research.....
1627	34	312647	2884882	2884309	drdrjay	10/18/08 5:33 am	1.22430798e12	brand new spring '08	dell precision m4300 laptop, 4 gb ram, 250 gb sata hd, 15 1/4 wuxga, 2.8 ghz. core 2 duo extreme, 3 usb, built in: wireless, blue tooth...everything for communication with anything! fast!
1627	35	312647	2884897	2884309	fritz the cat	10/18/08 5:37 am	1.22430822e12	9 year old powermac g4 agp graphics that's still going.	it's not the latest, nor the greatest, but after several years of doing a good job for me, i still use the old girl. and it's helped after maxing out her ram (4 512mb sd-ram sticks making a total of 2gb of ram), replacing her old powerpc 400mhz proccessor with a 1.8ghz processor. giving her 2 graphics cards 1 being an ati agp 9800 pro card, and the other being an ati pci 7800 card. 4 monitors, a 20 inch widescreen hp lcd monitor, a 17 inch hp lcd monitor, a 15 inch samsung lcd monitor and an old 28 inch ge tv that i play most my movies on. given her 2 internal 120gb replacing the single 20gb hardrive that was in her. even replaced the original zip drive with a geethree: sweet multiport. she even still uses an original apple airport card. all in all since i'm not a big gamer and more a movie nut i mostly play several dvd's , divx, xvid, itunes, and quicktime movies on her plus casual web browsing. she also does hard work encoding video's over an xgrid with my much older g3 imac witch was recently upgraded to 1gb. ancient technology you say? yes. does it get the job done? hell yeah!!!! xd (and for those that want to know i'm still running tiger on the g4 and g3 since it was the last great os for the powerpc architecture.)
1627	36	312647	2884898	2884639	rickanne	10/18/08 5:39 am	1.22430834e12	why reformat so often?	seriously, why? conventional hard drives only get so many good reformats. they are like cd/dvd-rw. you only get to erase it a certain number of times before its no good. have you ever tried using something like ccleaner? or how disk cleanup and disk defrag? i know reformatting keeps the thing fast, but every time you have to reload all your games, programs, and other apps (unless you have complete hard drive backup images). now i use ccleaner and revo uninstaller. these clean out all the junk and remove any unused programs at my discretion without leftover registry entries. keeps my vista x64 pc running as quickly as the day i built it. i run intel core2duo e7200 at 2.53 ghz, 4 gigs of ddr2 at 667 mhz, geforce graphics card, and a 250 gb sata ii hard drive. ultimately, what you do is your choice, but the above programs/suggestions may make your computing life a little easier.
1627	37	312647	2884899	2884309	at78rpm	10/18/08 5:40 am	1.2243084e12	mine's 3	i use a thinkpad z60m. it's on every day for at least 9 hours, and works beautifully. hard drive died last year, which surprised me (thinkpads are normally synonymous with quality) but was actually a blessing in disguise. i put in a new 100 gb hd and installed ubuntu. ubuntu takes advantage of all the fun stuff this thinkpad can do, so in no way do i miss windows. this machine, with a 2ghz processor and 1.2gb ram, has exceeded my expectations in every way. talk about a workhorse.
1627	38	312647	2884909	2884309	j7173	10/18/08 5:56 am	1.22430936e12	9 years and still kicking!	i built this thing in 99 and it still runs although slowly.just recently started to see the blue screen of death hardware failure come up on every so often so i think i may have to buid a new one soon.pentium 3 1ghz,half gig mem,120 gig harddrive and a really old graphics card (64mb mem i think).
1627	39	312647	2884910	2884309	loucap	10/18/08 5:57 am	1.22430942e12	two new ones...	i bought a mac book pro a few months back for my main office computer ( yes, i went tot he dark side, but hey, it just works), and i just bought my wife an acer aspire one netbook for use around the house while surfing the internet. prior to getting these machines, we had our laptops (acer & toshiba) for 3-4 years, and truth be told, we still use a 4 year old toshiba for the &quot;heavy lifting&quot; at home.
1627	40	312647	2884923	2884309	phil crase	10/18/08 6:03 am	1.22430978e12	desktop	my main tower is a clone, gigabyte mb, intel dual core, 3gb ddr 6400, 512mb vid 400 gb wd hdd, blaster sound card in antec mid tower w/ 500 watt supply running win xp professional. runs well for me.
1627	41	312647	2884925	2884309	carizma22	10/18/08 6:04 am	1.22430984e12	5 years old	god moornin: i have a titanium powerbook (apple)--867 mhz. i mostly use it for word-processing and surfing the internet, but i would like the functionality of the intel apples to be able to run windows for some of the applications i want to use. i have virtual pc but it runs really slowly and the screen is tiny. but i have loved this computer more than the ones i have had before--i have had macs since 1984 and the very first one with 128k ram! i am interested in the new line of apple laptops, which i have yet to see. my new laptop will be, as it is now, my only computer, so i am swithering between the portability of the macbooks and the bigger screen on the macbookpro. i am not sure that i need that much power though and the price difference is significant.or maybe i will just stick with what i have until it won't do what i need it to do. carole
1627	42	312647	2884927	2884897	carizma22	10/18/08 6:09 am	1.22431014e12	upgrading the processor	can i upgrade the processor in my titanium powerbook? i have 867 mhz. carole
1627	43	312647	2884930	2884925	carizma22	10/18/08 6:14 am	1.22431044e12	oops!	good morning, i meant!
1627	44	312647	2884932	2884618	nerv2010	10/18/08 6:18 am	1.22431068e12	stats on boxes	old box: p 3.0, 2g ram, 2x wd raptors, ati vid, xp pro, office pro new box: dual quad core xeon 2.0, 4g ram, 2x wd raptor, 1x 160g hd, quadro nvs 285, xp pro, office pro. first thing to go in the new box will be the video. should upgrade to a quadro fx.
1627	45	312647	2884934	2884781	nerv2010	10/18/08 6:25 am	1.2243111e12	chugging is better than none	hey, don't laugh, it works for you. i still have an old 3.5 on my 3 year old box and i still use it occasionally. mostly to wipe old 3.5's. usb makes it too easy now.
1627	46	312647	2884936	2884634	nerv2010	10/18/08 6:28 am	1.22431128e12	welcome to the dark side	we love amd converts. ah, ha, ha! nice rig you built though, better yet that you scavenged parts from the old box.
1627	47	312647	2884938	2884309	jpprice47	10/18/08 6:34 am	1.22431164e12	it's brand spanking new.	after 25 years i finally went back to apple. i've got an intel-based macbook. if i just have to use windows, i can run it simultaneously with vmware fusion.
1627	48	312647	2884955	2884309	maldelus	10/18/08 6:36 am	1.22431176e12	one to two year pc	dell dimension e521 with changes - added lite-on blu-ray drive, ati 1650x sound card, 4 gb memory, and replaced crt monitor with dell 1720w flat panel.
1627	49	312647	2884941	2884309	wheelnut53	10/18/08 6:41 am	1.22431206e12	its an oldie but a goodie	i've been lucky i have a friend who steered me in the rite direction off the top. he told me pc's are like cars they will all get you there .i was a compaq die hard . so i went to the store with a list of what i wanted /needed. my first and only computer. 1 gig ram cd-rewrite, dvd player/burner etc but they gave me a bootleg windows os. well now 4 yrs later the only original part is the mobo. i've cut holes in the side panel added additional ram, fans & lights recently a new heatsink fan. i found out about thermal gel by accident actually purchase some before i needed it, i've learned a lot,just dont ask me to count ram.
1627	50	312647	2884944	2884309	misha331	10/18/08 6:51 am	1.22431266e12	how old?	my main (work) desktop is a two-year old intel imac, and it's running beautifully! i like the dual-boot ability allowing me to switch to win xp with a simple 'restart'.
1627	51	312647	2884949	2884309	joshua kwoon	10/18/08 7:06 am	1.22431356e12	thinking of getting a new one...	my no-longer-sold dell inspiron 640m was a hand-me-down from my mother last year, running xp media center edition 2005. now she is using an inspiron 1420 running vista home basic. i've been eyeing one of dell's xps laptops lately. deciding between a xps 15&quot; or 13&quot;.
1627	52	312647	2884980	2884309	psharer4062	10/18/08 7:07 am	1.22431362e12	still runnng	i built my own computer, when i first builit it i had put an intel 915 board in it and now i just recently within the year put a dp35 board in it. have two optical drives 4g of ram runnng vista ultimate. love it. i also have 4 laptops and a xbox 360 that are all wireless, no wires in this network at all except for the ones comming into the house....lol
1627	53	312647	2884981	2884694	psharer4062	10/18/08 7:14 am	1.22431404e12	smart move on the reformett	if you set it up right yu will loose nothing, i do the same thing but i have an extra dfew drives that i store all of my important data on like photos, word documents etc. so when i reload all i have to do is reload the os and the drivers.
1627	54	312647	2884970	2884309	finalquest	10/18/08 7:34 am	1.22431524e12	old and running fine	i usually build my own boxes and i've really gotten upset with the constant un-needed changes. i have an amd athlon xp 3200 cpu on a soyo dragon mb with a gig of ram, 160 gig wd hd, ati 128 agp graphics, creative labs sound with xp as the os. i keep it alive and it still serves me well for graphics and work. i've been working with pc's since the dawn of the tandy home computer. heck i even had an osborne. what gets me is how we've become slave to the os rather than the other way around. every upgrade that comes out from microsoft has required a substantial hardware upgrade which creates an incredible surge in the waste stream. my question to everyone is, do you really need that much computing power? the average home user never hits the limit of their pcs' capability because all they're doing is sending e-mails and surfing the net. that can be done with cheap, less power hungry boxes or laptops. i still recall my favorite software bundle of all time. it was geoworks and it would run on a 286. aol actually used it as their gui before switching to then windows 3.1. geoworks had everything a home user needed. i know some people like to chase the technology but think about it. over time, how much money do you spend doing that and do you really need that much power ? will you ever reach the full capability of your pc if you are an average home user? (providing that you're not into high order fragging) take care !!
1627	55	312647	2884987	2884309	philipmm	10/18/08 7:39 am	1.22431554e12	less than one year	system model intel corporation enclosure type: desktop processor 3.00 gigahertz intel pentium d 16 kilobyte primary memory cache 2048 kilobyte secondary memory cache windows xp home edition service pack 3 (build 2600) main circuit board board: intel corporation d945gcpe aad97209-201 serial number: azpe74100alf bus clock: 200 megahertz bios: intel corp. pe94510m.86a.0050.2007.0710.1559 07/10/200 drives memory modules c,d 370.08 gigabytes usable hard drive capacity 254.19 gigabytes hard drive free space elby dvd-rom scsi cdrom device [cd-rom drive] hl-dt-st dvd-ram gh22np20 [cd-rom drive] seagate freeagent go usb device [hard drive] (120.03 gb) -- drive 1 st3250310as [hard drive] (250.06 gb) -- drive 0 1014 megabytes installed memory slot 'j6h1' is empty slot 'j6j1' has 1024 mb (serial number 0x65031d51) local drive volumes c: (ntfs on drive 0) 26.21 gb 13.59 gb free d: (ntfs on drive 0) 52.43 gb 51.30 gb free e: (ntfs on drive 0) 52.43 gb 52.36 gb free f: (ntfs on drive 0) 118.98 gb 32.75 gb free h: (ntfs on drive 1) 120.03 gb 104.19 gb free
1627	56	312647	2885014	2884309	bruce pattinson	10/18/08 8:07 am	1.22431722e12	re:how old is your current main computer?	motherboard: cpu type intel pentium iiie, 933 mhz (7 x 133) motherboard name aopen ax34 (pro) (1 isa, 4 pci, 1 agp, 1 amr, 3 dimm, audio) motherboard chipset via vt82c694x apollo pro133a system memory 768 mb (sdram) bios type award modular (05/03/01) communication port communications port (com1) communication port communications port (com2) display: video adapter nvidia geforce2 mx 100/200 (microsoft corporation) (64 mb) 3d accelerator nvidia geforce2 mx 100/200 monitor aoc 7elr(a)/7elr(a)+ [17&quot; crt] (112798539)
1627	57	312647	2885009	2884309	gthopper	10/18/08 8:11 am	1.22431746e12	have trouble downloading updates or new software	windows xp home edition, hp pavilion a 320n, system number dm168a-aba, serial number mxk 34500 mw. i don't know if you need any more than this, if you do then you would have to tell me where to find it, i am a computer illiterate, most problems are probably my own. the computer is strictly home use, i'm disabled so its pay my bills on line confer with my doctor recieve reports or results from test, appointments, look up medicines and supplements. nothing that i would think would harm it other than age. i have automatic security update but most of the time it doesn't work. it will show as being installed but its not there. it will be in my update history but not in my add/remove programs. i'm trying right now to install a 90 day trail for anti-virus. 90 days is a long time for limited/fixed income. i get so far and get an error report. start over, another error. i don't have any idea what these errors are or why. i follow instructions so in my thinking it should be simple, no, doesn't happen. is it because the computer is too old or i'm too old and stupid. i don't know if you can help or not but maybe a couple of suggestions.
1627	58	312647	2885029	2884309	techgeek44	10/18/08 8:28 am	1.22431848e12	mac pro all the way!	this past spring, i decided i'd had it with crashes and other maintenance issues with &quot;microsoft windows&quot; based machines....been using them for over 10 years. so i decided to try the switch to an apple product. bought a mac mini, learned how to use os x and then sold the mini to a friend. i then purchased a mac pro with dual 2.8ghz processors, installed 16gb's of ram and have never looked back. it's powerful,os x runs smoothly and it does everything i used to do on my windows machines without the hassles. hd video editing, photo editing and even gaming are all fun now! no os or hardware is perfect but this is as close to perfection as modern technology allows.
1627	59	312647	2885057	2884309	jrdinger	10/18/08 8:51 am	1.22431986e12	oldie but goodie...	im still running a heavily worked over g4 digital audio mac. upgraded to radeon 9800 pro, new drive controller and two 80 gig drives, maxed out ram to 2.5 gigs; as well as a 2 x 2 ghz g4 upgrade card. i dont game on this machine, so my needs are not spectacular. i love this machine and it has been worth every penny!
1627	60	312647	2885059	2884309	lsippell	10/18/08 8:51 am	1.22431986e12	getting old but still does fairly good	i built my computer in aug. 2006 and it consist of: dual boot xp pro and vista ultimate 64 (dont use xp any more) asus p5wd2-e premium motherboard intel pd 950 3.41ghz 775 2x2mm r processor (dual-core) asus silent square cpu fan and heatsink 4gb ddr2-sdram kingston kst dii667 memory 2gb kingston cf card used as readyboost for vista nvidia en8600gt/htdp/256m video card (dual monitor setup) nvidia en8600gts/htdp/256m (i use this for my 67 hdtv) (2) western digital wd2500yd sata hds (2) seagate st3320620ns sata hds (1) seagate st3250310as sata hd (total of 1.39 terabyte hd storage) optiarsc ad-7190 sata dvd rw drive nec ad-7190s sata dvd rw drive sony dvd-rom ddu1612 atapi drive rosewill rc-211 sataii pci card (i needed more sata ports) rosewill pci usb card lian li clear side case rosewill modular 550w power supply (need to upgrade soon)
1627	61	312647	2885060	2884309	jorge.arias.g	10/18/08 8:54 am	1.22432004e12	always toshiba	my old system (two years old): laptop toshiba satellite a205, intel dual core 1.86ghz, 15.4&quot; display, 2gb ram, 160ghz hdd, dvd/cd/rw dual layer, built-in speakers, windows xp pro. my new system (one month old): laptop toshiba satellite a305, intel core 2 duo 2ghz, 15.4&quot; display, 4gb ram, 320ghz hdd, dvd/cd/rw super multi, harman kardon built-in speakers, fm tuner, fusion finish, windows vista home premium x64.
1627	62	312647	2885074	2884309	prankster506	10/18/08 9:14 am	1.22432124e12	1 year old	i have a 1 year old macbook, and its the best computer i've ever owned. while all my friends have been dealing with hardware faults and windows vista, i have not had a single problem. i am a full blown apple convert.
1627	63	312647	2885077	2884309	tigerkitty2	10/18/08 9:18 am	1.22432148e12	2 year old former hotrod	when i built my current main box, it was fast. it's still pretty darn skippy, but it's not leading edge. quad core q6600 (oc'd to 2.93 ghz) zalman cpns9700-led cpu cooler 2 gigs ocz pc6400 (5-5-5-15) asus p5n-e sli mobo evga geforce 8800 gts 640 meg 250 gig wd caviar boot drive and a 500+750 gig wd caviar storage drives (all sata) pioneer dvd burner (ide) pc power and cooling 750 watt power supply all in an enermax chakra case
1627	64	312647	2885093	2884309	trackstar1682	10/18/08 9:30 am	1.2243222e12	2 years old, albeit mega upgraded	i have an alienware area-51 3500 that i got back in 2006, although it's taken so many upgrades it's practically not the same machine. as of now, it houses a gigabyte ga-ep45-ds3r motherboard, intel core2 duo e8400, 4 gb of ddr2-800 crucial ballistix tracer ram, gigabyte geforce 8600gt graphics card, 2x 80 gb hard drives, dvd rw drive, lg blu-ray and hd-dvd drive. i use a 500 gb external drive for all my &quot;stuff&quot; so if i have problems, reformatting is easy, although i'm highly sick of it and probably won't do so again for a while.
1627	65	312647	2885108	2884309	dwct18	10/18/08 9:34 am	1.22432244e12	how old is my computer?	hi everybody, my current main computer is 10 years old by this december. it is still working fine, no problem. dwct18.
1627	66	312647	2885095	2884309	ardy mattox`	10/18/08 9:35 am	1.2243225e12	main computer is a 2 month old toshiba	i have a toshiba laptop, 4 gigs ram and 320 gig hard drive. it has dual 2 core, so is fairly speedy even with vista. i've had no trouble with computer, but sure have had trouble with vista. pretty much love the laptop. also have (business requires extras) an hp laptop about 2 years old, which has had some repair problems, and an older fujitsu that i've never had a problem with. both of them have xp. both are laptops. i travel, so need portability.
1627	67	312647	2885133	2884309	mrgeek2u	10/18/08 9:57 am	1.22432382e12	poll: how old is your current main computer?	my computer is a glorious 5 years old. amd athlon xp at 1.83 ghz with 1 gb ram, 2 320gb hdd, pioneer dvd burner and lg dvd/cd-rw, and yes, it has a 3.5&quot; floppy. so far it's been a great unit, both for experimenting and everyday computing. i don't beleive it is a matter of how old the computer is.. it is a matter of will the computer still do what you need it to with a reasonable speed and accuracy. i have large drives because i do a lot of photo and video, and the machine was built from ordered parts and i have not had any problems ( that i didn't cause myself). the computer industry is full of hype about bigger , better, faster. if they didn't, they wouldn't be in business for long. if it works - don't fix it, and don't replace it... unless you really need to. and if you look hard enough, you caan still find parts for the older machines. my 2 cdn
1627	68	312647	2885135	2884309	swamprat	10/18/08 10:02 am	1.22432412e12	what kind of computer	06 after katrina acerpower intel p4 modified my local microsource shop. trouble free and quick enough with xp. use all freeware such as open office and serif graphics. why pay when stuff is free and works.
1627	69	312647	2885137	2885135	roothlus	10/18/08 10:08 am	1.22432448e12	very old.	6 or more years (what do you have?) i have a hp pavilion 753n desktop which is 6+ years p4 2.53 ghz/533 came with 512 ram...expanded it up to its massive 1gb max. 80 gb hardrive...plus the 300gb external one i have now. at least its not made of wood lol.
1627	70	312647	2885146	2884309	1alexh1-22315841281810626925815761762739	10/18/08 10:13 am	1.22432478e12	how old is a pc in dog years? or cat years?	my main desktop is an hp pavilion which i bought in december of 2001. i just this week upgraded it to 2 gb ram and it's leaping around like an olympic jumper! a great machine, it seems to not be showing its age. 2.4 ghz p4, with 2 gb ram, an 80 gb hd, a cd/dvd rw (burner) and all other stuff seems to have been brandy new, even though it is not. it works like a charm. my laptop is less than a year, and it runs vista sp1 like a new-born, no problems, it's an acer 5920 aspire, and is a joy to use. alas, i picked up a trojan and am going to rebuild it but that will take me all of an afternoon and it will be back in business. they're truly making better machines these days, and thanks to that, it is easier to deal with problems than it ever used to be. so, the 7 year old hp desktop pavilion, and the &gt; 1 yea old acer aspire laptop, and i couldn't be happier with my hardware. (once more, please forgive any glaring spelling errors ...). -a.
1627	71	312647	2885182	2884309	hilkap	10/18/08 10:51 am	1.22432706e12	my main computer is over 3 years old	pc club amd6 528 meg dual hard drives 40 + 200/6 cd drive and dvd drive xp sp3 have never reinstalled xp
1627	72	312647	2885191	2884309	x.killeddestiny.x	10/18/08 11:17 am	1.22432862e12	compaq presario sr5505	a month old at best. pretty nice expandable computer for 300 bucks
1627	73	312647	2885209	2884309	bagthepi	10/18/08 11:29 am	1.22432934e12	mac g4 and gateway pc laptop - both over 5 years old	my mac g4 is my primary desktop which i bought in 2001. (it replaced a mac performa which i had for well over 5 years.) runs like a top; upgraded os to leopard. will eventually replace it with mac pro laptop. bought my gateway m500 6/03. have never had a problem with it. upgraded the cd-rw to dvd-rw last year and added ram. other than that, i've done nothing to the hardware. still runs well. only bought the pc because i needed portability + msn to keep my clients happy. now that a mac can do both, i'll be upgrading to the mac laptop next year.
1627	74	312647	2885219	2885209	1alexh1-22315841281810626925815761762739	10/18/08 12:16 pm	1.22433216e12	how old?	what is remarkable is that as we all learn more about the technology, we become more able to manage what we have, rather than immediately say, &quot;i gotta get new stuff!&quot; and be it a mac or a windows machine, we all are indeed learning more - thanks to fora like this and other locations, in which we can share information, ideas, suggestions, and the like. folks, without the trumpets, we have walked quietly into the information age, and it's a nice place to be. we can relax, sit and learn from others, teach if we want to and are qualified to do so ... so, my thanks to all from whom i am learning - and i've been working with pcs since 1985 and computers since ... well, i don't want to give away how old i really am &lt;bg&gt;! the info age is actually a nice place to spend some time, no? -a.
1627	75	312647	2885246	2884309	lostinnw	10/18/08 12:39 pm	1.22433354e12	older than dirt!	this is embarassing! compaq presario 5700n with 1 mb ram and 466 celeron processor! works fine with what i'm doing, but i have to upgrade soon to get better video.
1627	76	312647	2885283	2884309	doh_1	10/18/08 1:38 pm	1.22433708e12	latest desktop computer	i had an older dell as our second computer. since my wife was starting a college course, i wanted her to be able to use our faster, newer computer, but also was working at home using it. so we decided that we should get a newer computer a couple of months ago and retire the older dell. since i buy a computer to last a few years, i usually pay a little more ($1100) to get something that will last a little longer. this time: dell xps-420 q9450 2.66ghz. quad-core processor (12mb. of cache), fsb 1.33ghz. memory 3gb. 800mhz. ddr. 320gb. sata hard drive this desktop works great with windows vista, and i'm very happy with it. i think that it has enough horsepower to feel fast for at least a couple of years. -roger
1627	77	312647	2885323	2884309	jennywren1420	10/18/08 2:37 pm	1.22434062e12	6+ years	i have a mac g4 desktop (the model's called sawtooth) running os 10.4.11. it could be six, seven or eight years old. i just have been too busy enjoying it to remember when we first became acquainted. sort of poky, but i don't care. it does what i want it to do, and if i wanted to make a change, i could. i also have my old monochrome laser printer, which pre-dates the computer, going back to the old powerpc days (i had a 7100) and os 7.
1627	78	312647	2885370	2884309	john_locke77	10/18/08 3:40 pm	1.2243444e12	windows me	i don't know exactly how old it is, because my aunt gave it to me when she bought a new computer. it's an hp pavilion, with a pentium iii processor, and 127mb of ram. one thing i don't like about it is: every time i restart it, (which is a few times a week,) it puts an outlook express shortcut on the desktop. (this annoys me because i don't use outlook express, and i heve to delete it again.)
1627	79	312647	2885401	2884309	lane102	10/18/08 4:45 pm	1.2243483e12	almost 7 years and 9 months old	i have a dell dimension 8100, p4,1.3 ghz., 60 gig hd, beautiful 19&quot; monitor. it came with windows me(horrible), and 128 mb of memory. i added xp and more memory(512 mb). oh, it also came with a modem because i had dial-up access at first. i keep it clean and tuned up and it serves me well.
1627	80	312647	2885432	2884309	rnemefe	10/18/08 5:46 pm	1.22435196e12	how old is my main computer?	gateway model 500c pc - 1/01.
1627	81	312647	2885460	2884309	jcipo	10/18/08 6:25 pm	1.2243543e12	how old is my computer	i have found that a difference of one year is like day and night with both computers using vista. my old more expensive unit took forever to start up or shut down. the new cheaper one is very quick. the best thing is i had to jump thru hoops to run my old programs on the older computer but the newer one runs these programs without a problem. years ago, when a computer cost thousands of dollars, it was expensive to upgrade. now adays, $500 can get you a pretty good machine. if you are a gamer and need a better machine. there are a number of places who will build a super one for you for a $1000 that will last a good long time.
1627	82	312647	2885510	2884309	atm4940	10/18/08 8:22 pm	1.22436132e12	current main computer	my main computer is a two-year-old toshiba laptop. it's my fourth personal computer since the early 1990's. the toshiba was an inexpensive little laptop, but has proven to be extremely fast, with an incredible memory capacity. i have a secondary laptop, an eight-year-old gateway, that still works remarkably well.
1627	83	312647	2885552	2884309	back_water_tech	10/18/08 10:39 pm	1.22436954e12	3 year old brown box	i love playing with this stuff. i built many pc's and this one is just another in a long line. it is starting to show its age, however. by today's standards, it is out right old, but the games i play are about as old as it is. and honestly, for web or office applications, it is just fine (as it was three years ago when i built it.) im dreaming of a new dual core system for christmas. lol
1627	84	312647	2885553	2885432	back_water_tech	10/18/08 10:42 pm	1.22436972e12	thats awesome!	i love seeing older pc's still kicking it. i wish you many more faithfull years of service!
1627	85	312647	2885548	2884309	lynjs	10/18/08 11:28 pm	1.22437248e12	my pc is 18 months old	my pc is 18 months old. even though i hate hp, that is what i have. i know some are asking why did you buy it? well, that's the catch. i didn't. when someone is buying you something, you take it, even if you don't want or like it. if it had been my money, i would have bought a sony. the pc in question is a custom a1750y series hp 3 gig using vista. prior to that, i was on another hp, that was purchased in 1999, the 6746c 733-mhz using windows me. i basically skipped over the xp thing where folk preferred it to vista. i prefer windows 98 to all other os, even though vista is just fine to me.
1627	86	312647	2885809	2884309	hollea	10/19/08 9:11 am	1.22440746e12	6 yrs and older	i have a gateway laptop running win 98se with a 20 gb hard drive and 160 mb ram works good, runs good, no problems but in order to do income tax online this year i had to upgrade and buy a new computer. so i got a hp pavillion dv9000 which is a media centre pc and also a tv with 4 gb ram and a 350 gb hard drive. so i use both.
1627	87	312647	2885819	2884309	angellica71	10/19/08 9:24 am	1.22440824e12	an oldie but still good	in reply to your question i have an e machines t5010 with an intel p4 with 3.0 chip only things i did was add an extra cdrom drive and a 19 &quot; flat screen never given me any trouble and probably won't either since i stay pretty much on schedule of keeping it run efficient
1627	88	312647	2885962	2884309	terdog	10/19/08 12:12 pm	1.22441832e12	how old is my current computer	its a home built pc, most of the machine is about a year old, but i have done some upgrades to it. when i first build the computer, i was running an dual core e6600, and a nvidia 8600 gts video card. i bought a better video card this march. a sapphire radeon 3850 hd, and in august, upgraded the cpu to a quad core q6600. other than those upgrades, its pretty much the same. still using xp pro for my operating system. tried vista, hated it, went back to xp.
1627	89	312647	2886024	2884309	wljones	10/19/08 12:52 pm	1.22442072e12	oldest and best of those i own and use	i bought a linux preloaded computer from cyclox (apparently out of business now) in 1991. it has never been contaminated with microsoft software, but has run several variations and iterations of linux. it is not ready for retirement yet.
1627	90	312647	2886026	2884309	shadowfax7	10/19/08 12:53 pm	1.22442078e12	5 years and still going strong	i have a 2.6 ghz emachines from wally-shop. model # is w4682. i have finally upgraded the memory recently from it's wimpy 256mb by adding another 1gb. the 80gb hard disk is original. the only other mods have been adding a 128 mb agp card, and replacing the power supply 3 years ago. between my son and myself, we run the machine between 5 and 10 hours a day, 355 days a year.
1627	91	312647	2886132	2884898	bush4rat8kizzy	10/19/08 3:12 pm	1.22442912e12	totally agree	have been using to clean up a vigor laptop bought used and had lots of cleanup, using ccleaner, defraggler from same co. and revo is the killer cleaner without doing anything else this laptop now works 100% and i'm sure i could still offload a whole lot more without having to reformat. try it you'll like it...
1627	92	312647	2886153	2884309	bush4rat8kizzy	10/19/08 3:27 pm	1.22443002e12	off grid desktop replacement	living offgrid, no landlines likely in my lifetime, got the gamers 17&quot; artorius laptop from vigor, 18 mo. old for desktop replacement loads of upgrades and addons and seller left almost all his stuff on, so have been cleaning alot. using ccleaner, defraggler,(same site) and revouninstaller, too much stuff sharing to reformat with os. had it a month now and runs like new except startup still abit slow, have more to get rid of...and we will live happily with no bugs. and i'm an old slow brain ...
1627	93	312647	2886330	2884309	oldhouseman	10/19/08 9:31 pm	1.22445186e12	what i have	i have a dell precision 670 workstation, dual xeon processor, that i got to do graphics work. i do a lot of photography and work with old photos, especially old aerial photos, which tend to be pretty big (some get up to 250-260mb or larger). when i start manipulating them, the extract files can grow even more. so i decided that i wanted a graphics workstation like the pros used to do their work, and i've been very happy with the decision. it works well, does a nice job and is pretty fast. the only downside is the 64-bit o/s. sometimes finding things that work with it can be hard, but, so far, i've always managed.
1627	94	312647	2886385	2884309	malcolmb3	10/19/08 11:20 pm	1.2244584e12	about a year old.	i assembled my first over ten years ago. i usually upgrade until the motherboard can handle no more. when i replace the mb i consider it to be a new pc even though some of the old stuff stays. this is my fourth. i'm running vista home premium sp1 on an amd athlon dual core 4400 2.3, 2 gigs of ddr2 pc2-5300/667, 500 gig hard drive, dvd+-rw disc drive/burner, 450 watt power supply, sb audigy, ati 2600 pro pcie, altec lansing 2.1 speakers (these are 3 pcs old - still sound great), 22 inch ws/hd lcd monitor, apc ups, cordless mouse, and a cheapo keyboard. i'm no gamer but i like media. i tend to buy middle of the line competitivly priced stuff. i've ordered an amd dual core 6000+ 3.0, two more gigs of ram, and a 64 bit upgrade to vista. this will lead to a better sound card, more powerful video card, and so on. i've no problem with intel processors except price.
1627	95	312647	2886429	2884309	gordon wileman	10/20/08 2:04 am	1.22446824e12	how old is my computer	my computer is almost six years old and is a compaq presario 6000. it has behaved faultlessly, encouraging me to buy a s/h compaq deskpro en, on which to run mandriva linux.yhe presario came with xp home edition.
1627	96	312647	2886432	2884309	doc1947	10/20/08 2:29 am	1.22446974e12	i have a six year old generic desktop	amd 1.53 gig athlon with 2 hard drives that total 140g of storage space running xp. it does everything i need. but then, i'm retired. if i get into photoshop cs 4, i will have to get a new box. but i will not replace this old model t until i can't use it anymore.
1627	97	312647	2886676	2884309	bharat puri	10/20/08 8:48 am	1.22449248e12	my computer	i have a hp compaq presario computer with xp windows. it is four years old. it has 120 gb hard disk with 516 ram and dvd writer and combo drive. it is working prefectly though some times have problem with windows and i have to reinstall windows again otherwise it has no other proble. bharat
1627	98	312647	2886769	2884309	slong3	10/20/08 10:41 am	1.22449926e12	wow, almost 10 year old, no name, pentium 4, 1.8 ghz	i put it together using all the best components of the day and it still works well for my use.
1627	99	312647	2886934	2884309	sheaverbaan	10/20/08 1:23 pm	1.22450898e12	golden oldies	although we have one, 3months old computer and one about 1 year, i still go to my old sony vaio, 5 years old and running like sunshine!
1627	100	312647	2886998	2885370	john_locke77	10/20/08 2:33 pm	1.22451318e12	in my original post, i forgot to mention	for me, it's about 1-1/2 years old. but, because it has windows me installed, (and i'm not the original owner,) i'm guessing it's about 8 years old.
1627	101	312647	2887132	2884309	nightmares0nwax	10/20/08 5:27 pm	1.22452362e12	3 years	about 3 years, the mother board is 2 years old asus a8r32 mvp delux ##// great board, supports dual channel amd athlon 4000+ ##// slow but reliable 1gb crucial pc3200 ddr single channel ##// no problems, 400mhz ati radeon x1900xtx ##// ace card, 140fps on some games ati all teh way!! creative soundblaster x-fi xtreme fidelity ##// poor, i wont buy creative again seagate barracuda 250gb ide ##// no probs asus ide dvd/cd rw ##// never really worked last time i reformatted was dec last year, still works like brand new. there are some hardware issues. my xtreme fidelity souncard causes post failure from time to time, my dvd drive has stopped playing copied dvds, dvd roms play fine. apart from my antec p180 case falling apart its fine. i did replace an abit motherboard that lasted only about a year. that pissed me off to say the least =)
1627	102	312647	2887389	2884309	fishandgrapes	10/21/08 6:28 am	1.22457048e12	the older pc	it is branded packard bell, made by nec. cost about 900 dollars four years ago, incuding a nice tft, from high street chainstore. windows xp home. 80 gig disk. less trouble than anything else i use (and i'm not smart technically) but gets glitchy for a while after anyone else uses it. i have always found this to be so with shared pcs. paranormal interaction?! dodgy web visits?? at first, with 150 meg of ram, the thing didn't cope with photos, but an upgrade to 750 which i did myself made a huge difference. i don't do gaming or massive video - would rather read a book! my music-loving son says my next computer should be a mac. they look friendly. why not? howard, devon uk.
1627	103	312647	2887416	2886330	nerv2010	10/21/08 6:57 am	1.22457222e12	another workstation user!	after reading the numerous posts, i'm relieved to know i'm not the only workstation user. i was starting to think there were only gamers and vintage pc users. ah, ha, ha!
1627	104	312647	2888229	2884309	aximuser	10/22/08 3:03 am	1.22464458e12	5 year old custom made pc running vista!	my main pc is over 5 years old. i have it setup as a dual boot pc running vista home premium and xp. i spend most (99%) of my time running vista. vista runs really well on this pc. i have 1gb of ram and an ati 9800 video card (128mb) of ram. the cpu is an intel p4 2.6ghz single core, hyper-threaded processor. this pc is proof you can run vista just fine on some older pcs.
1627	105	312647	2888555	2884309	bush4rat8kizzy	10/22/08 9:49 am	1.22466894e12	dell 650 laptop 8+yrs	still using this machine daily, upgraded as far as motherboard can do. email, ebay, weather, and pogo...keep clean with ccleaner, defraggler, and revo. occasional scan with eset. and avg free from cnet. 40g with only 5g used 512mbram, so all my photos are on my vigor laptop, used to be a gamers, so lots of room and memory for what i do, boots into linux for watching dvd or tv without using windowsxp. great battery life it's 2yrs old and still get min. 2hrs time. keepin' clean keep's em workin..have only reformatted the dell once!!!!!
1627	106	312647	2888934	2884309	tourist97	10/22/08 2:37 pm	1.22468622e12	gateway stinks!!!! where's a computer lemon law?	i bought a dua quad gateway from best buys, when they first came out. it was supposed to be the fastest computer i could buy! it runs on vista. it crashes constantly, is slow, freezes, and does not want to start. makes noise, and is now battered from being sent to gateway 3 times for repairs. they admit &quot;they did nothing but send it back to me&quot;. when i pointed out the memory was supposed to be 500 gigabytes, adn duo quad processers, they simply removed the stickers proclaimig the facts from the computer. they deny it is even possible to be a gateway. nepal, etc. hummmmmmmmmmmmm, it has a cow spot box, the computer has gasteway imbedded in the design. i have an advertiement from the gateway website advertising it at best buy, fries and two other stores. i have the best buy advertisemtn, the receipt too! the corporate office sneered at me, hung up several times. they say when i signed the warranty, i gave up all rights to sue. i have the warranty, instructions, all say gateway on them. they openly said they will never fix it........ i say the h____ with them!!! i have a toshibas laptop that bounced all over including india, tibet, nepal, cambodia, nepal. it works still!!!! if the old computer works, maybe it is the best to keep. i have to use it anyway, since i have the gateway lemon of the year. i would love to expose them, and sue their butts!!!!!! i now hate gateway!!!!
1627	107	312647	2890061	2884309	damasta55r	10/23/08 11:54 pm	1.22480604e12	4 years old	intel pentium 4 560j 1gb ddr2-5333 250gb hard drive windows xp pro nvidia 9800 gt still runs great. still faster than my laptop (8 months) amd turion 64 x2 2.0gz 2gb ddr-667 250gb hard drive windows vista home premium ati x1270 integrated graphics
1627	108	312647	2890841	2884309	neuro59	10/24/08 6:50 pm	1.2248742e12	brandspanking...less then a year.	i flip hardware alot. some of the parts of my main rig are a few years old (harddrives) most are 1-2 years old. i just came back to amd running a phenom 9950be on a 790gx motherboard, 4gb ram 2x200gb raid0 hdd for os 750gb storage drive, silverstone 700w modular psu and his hd4850 video card. sold my p5qdeluxe and q9300 to build it.
1627	109	312647	2893159	2884309	graeme.a.dixon	10/27/08 3:20 pm	1.2251208e12	my new pc - hp xw4600	i'm very happy with my hp xw4600 workstation (purchased for similar price to a desktop) and the samsung 22&quot; wide screen monitor attached. i find that having two built in hard drives very handy in keeping data on one drive and the op system on the other (especialy with respect to unstable vista in the first week - had to reinstall it completely). installed an all in one media card reader (dirt cheap) and also added the linksys n series wireless adapter - very fast wireless broadband connection which makes the g look like a snail. trouble is i will now have to upgrade all the other wireless adaptors on other pcs i have to the n !! cheers, graeme.
1627	110	312647	2894740	2884309	queenwoman	10/29/08 11:04 am	1.22527824e12	dell dimension 410/9200	my dell dimension 410/9200 is a year old
1627	111	312647	2895439	2884309	gregguysinger	10/30/08 7:59 am	1.22535354e12	old but good enough for development	i have an hp vectra vl 420 that has served me well since late 2000. i should max out the ram to get the most of it though. os name
1627	112	312647	2941211	2888934	igotthelemon	1/1/09 8:57 am	1.23080022e12	lemon law	you can find cimputer lemon law advice at
1627	113	312647	2941651	2884309	frankqc	1/1/09 6:38 pm	1.23083508e12	less than 1 year	i got my laptop near april 2008. it's an hp pavilion dv9834ca. --direct x diagnostics-- processor: 1.8ghz core 2 duo t5550 memory: 3070mb os: microsoft windows vista home premium display: nvidia geforce 8400m gs ------------------------
1627	114	312647	2942640	2888934	mgand	1/3/09 9:10 am	1.2309738e12	good info	good information in your post. i'll be sure not to make the same mistake.
1627	115	312647	2945324	2884309	sharon salter	1/6/09 3:31 pm	1.23125586e12	value of an old computer	where can i find the value (if any) of an old computer...probably 15 years old?
1627	116	312647	2950022	2884309	chickenorfish	1/12/09 7:23 am	1.23174498e12	dell xps 420	i have a year old dell xps 420. after having some problems with vista i put xp on it and its much better. im having some vid card problems but i got a 4 year warranty from dell so im all covered on that dell xps420 win xp sp2 22&quot; widescreen dell lcd q6600 2.4ghz quadcore 8800gt 512mb gpu 500gb 7200rps seagate integrated audio 3gb ram 800mhz 16x dvd+- r/w 2 year old laptop: dell inspiron 1501 15/4&quot; lcd amd tk-53 1.7? x2 2gb ram integrated 256mb gpu 120gb 5400rpm seagate wifi n the inspiron can play team fortress 2 at 15fps, which is enough to keep me sane when im traveling on vacation
1627	117	312647	2950351	2884309	markflax	1/12/09 12:01 pm	1.23176166e12	to mgand, post deleted.	you post included an advert, and that contravenes forum policy. that's why i deleted it. mark
1627	118	312647	5075993	2884309	turtle50112	2/3/11 12:25 pm	1.2967359e12	old is my current main computer	abit nf7 mobo amd athlonxp 2800 running at 2079.6 mhz 768mb ddr400 ram 128mb ati radeon 9600 wdc 120gb internal running win7 ultimate 1.5tb usb2.0 seagate freeagent hpdvd1170 samsung syncmaster 798mb 17&quot; flat screen monitor sb audigy 5.1 soundcard logitech x-530 i figure its about 6 or 7yrs old
