1335	0	286028	2718149	NR	Lee Koo (ADMIN)	2/29/08 1:04 PM	1.20429024E12	poll buy refurbished recertified computer	buy refurbished recertified computer yes how worked depends always buy ones why past never happened never gave thought why
1335	1	286028	2718151	2718149	John.Wilkinson	2/29/08 1:06 PM	1.20429036E12	nt off building own	NIL
1335	2	286028	2718171	2718149	ramarc	2/29/08 1:30 PM	1.2042918E12	right price yes	brand pcslaptops inexpensive refurb bit cheaper
1335	3	286028	2718216	2718149	Coryphaeus	2/29/08 3:00 PM	1.2042972E12	heartbeat	bought three ibm thinkpads four thinkcenters perfect machines zero problems subwebaddr got lucky got last thinkpad ghz mobile processor wireless three desktops ghz ht processors
1335	4	286028	2718303	2718149	Willy	2/29/08 5:48 PM	1.20430728E12	depends	theres problem recertifiedrefurbed equipment seller worry excluding warranty issues seller provides condition real value honor push less desirable product theres always market products seems grown way too further vendors offer such product reconditioner must openly state box somewhere obvious seller cost itself real plus overall found trouble end use products however seems stated above problem cropsup sellers drag their feet andor less happy sale fact tada willy
1335	5	286028	2718331	2718149	joeinmalta	2/29/08 7:02 PM	1.20431172E12	always buy	always buy upgrading old longer possible give old computers family members thereby never giving ownership theres problem problem keeps demand
1335	6	286028	2718332	2718149	debra_carlson	2/29/08 7:04 PM	1.20431184E12	depends	gotten good offlease recertified machines past cost point generally machine equal less cost full warranty green ill run mine ground
1335	7	286028	2718338	2718149	Anddragon	2/29/08 7:14 PM	1.20431244E12	go green	second computer refurbished computer good people surf use main where keep important things lost bumped off doing able itgo greenand keep computer going landfill great idea comparisons pricethat go waysfor getting higher price outfitsit cheaper rebuild computer personal needsi find go looks anyhow
1335	8	286028	2718339	2718149	hellodear	2/29/08 7:16 PM	1.20431256E12	buy oh mistake nope never	never never bought hp refurb terrible hard drive errors immediately working away town months returned find within weeks crashed hard drive real use less weeks called hp alas month warranty asked wanted extend warranty hard drive paid worth times cost replacing hard drive buy extended warranty rip off replace hard drive myself own cost original riddled errors over hard believe wouldnt known junk ever ever purchased dell computers hp computers plus built many myself personally dell good price quality refurbs junk
1335	9	286028	2718357	2718149	VesperDEM	2/29/08 7:20 PM	1.2043128E12	depends	buy refurbished apple computer never buy refurbished windows based computer
1335	10	286028	2718359	2718149	dissapointed in vista	2/29/08 7:20 PM	1.2043128E12	buying vs refurbished	always hp computer fan loved until got bad extra warrantees got refurbished units replacement bad unit hp replaced computer times over year times sent refurbished units each time problems last time made refund went got myself purchased laptops ebay individual owners wholesalers never problem personal opinion work box problem electronics touchy rather wait under warranty costs few
1335	11	286028	2718361	2718149	davidroper	2/29/08 7:22 PM	1.20431292E12	yes	refurbished recertified same company made done company tested reboxed look sunday newspaper specials often discounted lot
1335	12	286028	2718364	2718149	purple_reading_giraffe	2/29/08 7:24 PM	1.20431304E12	yes manufacturer	bought tc subwebaddr refurbished extras off low price great deal great tablet good service yr accidental damage wrty happy cautious buying mfr major chain
1335	13	286028	2718377	2718149	mattkenseth17	2/29/08 7:25 PM	1.2043131E12	likely	rig custom configured refurb question
1335	14	286028	2718367	2718149	ny2nv	2/29/08 7:26 PM	1.20431316E12	yes	bought hp costco qualified vista home premium upgrade exceded expectations came accessories including remote control hp helped vista upgrade
1335	15	286028	2718368	2718364	purple_reading_giraffe	2/29/08 7:28 PM	1.20431328E12	tc	silly typos
1335	16	286028	2718381	2718149	lynjs	2/29/08 7:31 PM	1.20431346E12	buy refurbished pc	while nothing wrong unit youre taking chance money limited warranty besides paperwork says refurbished doesnt mean actually put back shelf box taped shut person burned dramatically hp past prudent saddled someone elses trouble go buy
1335	17	286028	2718372	2718149	Kurogin	2/29/08 7:33 PM	1.20431358E12	yes	bought hp pavilion refurbished canadian saved least hp really good tech support their website gave required info detailed specs pc problems hardware yet few minor problems vista sp rc were fixed system restore definitely buy refurbished computerprintermonitor form internal hardware such pci cards hard drives
1335	18	286028	2718385	2718149	PaulTercier	2/29/08 7:34 PM	1.20431364E12	refurbished computers	lesser known things most big boxlarge dept stores generous return policy resell returned computer equipment buyers remorse return sold open boxreturn units savings range substantial bit change long time technician service department person found refurbs actually less costly build using same quality components counting software yes buy done several times hpcompaq systems gateway ibm come close second especially ibm website off lease units
1335	19	286028	2718374	2718339	rburtnick	2/29/08 7:36 PM	1.20431376E12	should probably never say never	say never survey definitely long hard too built many pcs bought numerous refurbs never felt financially flush enough buy top market system always wish saving grace knowledge top moving target bought top day old already anyway while never totally satisfied must admit closertothetop machines issued various employers often given long satisfactory service
1335	20	286028	2718388	2718149	51novice	2/29/08 7:37 PM	1.20431382E12	refurbished pc	bought refurbished pc hp line few years ago return twice due harddrive problems dissagree their customer service getting pc back second time harddrive noises wrote hp couple days passsed customer service rep called home arranged send pc replace refurbished worked hp computers friends satisfied customer service response questions problems yes problems refurbished pc hp take care
1335	21	286028	2718400	2718149	tizzanne	2/29/08 7:47 PM	1.20431442E12	obsolete before start	knowing how quickly computers become old good reason buying refurbished computer considering computer obsolete before leaves store thought buying refurbished waste money computer prices getting cheaper time afford best buy best afford money too tight buy refurbish own old computer bit bit value money buying someone else done buying old
1335	22	286028	2718414	2718149	sys-eng	2/29/08 7:48 PM	1.20431448E12	depends type computer	engineer bellsouth routinely purchased usedrecertified refurbished computer systems poll specify type computer systems never bought personal computer doubt unless less year old systems bought were primarily unix systems such sun ibm hp compaq stratus tandem unix systems applications often change system run five years without significant changes scenario likely personal computer where software often changed every months each change requiring computing resources
1335	23	286028	2718416	2718414	sys-eng	2/29/08 7:50 PM	1.2043146E12	nt sorry saw word desktops front poll	NIL
1335	24	286028	2718417	2718149	Rocker452	2/29/08 7:51 PM	1.20431466E12	yes already	last laptop bought dells outlet store recertified unit returned time saved off same options yrs ago buy oem outlet myself trust rd party sites problems came same warranty most oem outlets policy good idea check prices laptops come down savings bargains research latest components
1335	25	286028	2718402	2718149	rbsjrx	2/29/08 7:52 PM	1.20431472E12	depends lot things	specifically who type machine brand whos selling windows yes probably mostly use windows work time build machine direct impact bottom line buying refurbished reputable source means save money isnt risk buying refurbished mean avoid getting stuck vista machine having invest money buy oem copy winxp replace running linux likely build scratch last computer bought wife refurbished hp bought hp web site came winxp mce reliable great machine great deal otoh known too many people whove burned buying refurbished machines neighborhood computer store wouldnt buy parts most those stores anyway their parts always suspect often counterfeit mislabeled always cheap inexpensive cheap skill people involved highly variable buy refurbished dell hp lenovo et al pretty youre getting otoh people whove bought refurbished offbrand store brand pcs were unmitigated disasters refurbishing wont turn sows ear silk purse gigo caveat emptor note above refers desktop pcs laptops notebooks matter entirely theyre flimsy begin refurbished machines likely subjected catastrophic events amount refurbishing completely fix never buy refurbished laptop notebook pc
1335	26	286028	2718424	2718149	spidney	2/29/08 7:56 PM	1.20431496E12	definitely purchase refurb	definitely purchase refurb computer last three laptops refurbs completely satisfied say laptops were purchased manufacturer customer service excellent component fail laptops parts were replace immediately going purchase refurb recommend through manufacturer ensure warranty
1335	27	286028	2718433	2718149	drronlech	2/29/08 8:01 PM	1.20431526E12	way	cheaper dependable build own monsters chipset motherboard core duo processor gb hds raid gb ddr ram mb pci express graphics ati tv tuner card modem pciexpress wifi dvdrw burners lightscribe antec case thermaltake power supply floppy drive vista ultimate bit anything else need refurbished recertified piece junk took hour build
1335	28	286028	2718440	2718149	kstokes606	2/29/08 8:02 PM	1.20431532E12	refurbished pc never	past wouldnt bought refurb pcs ti windows laptop great works fine dell desktop disaster looked smelled totally knew couldnt evidence refurb except dell said months ok fun began thing slot sound card died moved remaining slot went agp slot died too motherboard replaced sound card video card modem died weekly succession failures motherboard issue suddenly began boot apparently bad solder joint someplace took cards drives etc built pc case ps case motherboard went curb next trash day mine write off bad luck friend mine similar issues almost identical pc refurb too built own dessktops last years dell laptop bought half years ago couldnt really
1335	29	286028	2718456	2718149	Garebear44	2/29/08 8:08 PM	1.20431568E12	NIL	pick machines dump salvation army pawn shops repair andor upgrade use give needy
1335	30	286028	2718457	2718149	retiredat532002	2/29/08 8:09 PM	1.20431574E12	great deal	bought lots refurbished electonics items tell never problem come original factory warranty why worry aamof opinion actually why flaw found fixed already whats go wrong hand product possibility same flaw show something else buy down town involved getting fixed whereas refurbished already fixed please personal experience man items every bit good buying save quite bit money simply box item youre benefits purchased display items same way never problem either steep discounts original factory warranty items insignificant amounts usage means absolutely nothing course amount their existing life
1335	31	286028	2718462	2718149	Luto Lopez	2/29/08 8:11 PM	1.20431586E12	yes	bought refurb store return open box latter directly big box merchandisers liquidators ebay buy myself family immediate extended few friends sometimes money sometimes theirs usually buy machinesyr mostly desktops notebookyr above probably wont latest hot gizmo pc youre going use few months wont latest whizbang gizmo anymore anyway why bother currently find best deals store return resellers ebay come go always several honestly describe selling refund replace honest error listing recently bought dell desktop niece her money she nervous buying usedrefurbreturn weve trouble machine including replacement motherboard pc bought last years expect turned way weve zero problems dell desktop her mother longer customer return bought ebay reseller desktops currently usually find money buying store return machines often missing accessories oem mice keyboards etc usually junk loss theyre missing replace anyway notebooks closer call granddaughter went off college last fall got her notebook best buy couldnt find good value terms features price refurbusedopen box available back school specials were running
1335	32	286028	2718463	2718149	topfmeister	2/29/08 8:11 PM	1.20431586E12	third pc computer refurb	afraid buying electronics store where worked knew warranties inside radioshacki using compaq presario works fine added gig ram increased storage gig over terrabyte internal external drives problems bought acer laptop usedxp ebay works greatand acer reconvista geeks exchanged hard drive failure replacement works great basically way around computers worth gamble go refurbrecerti saved over last purchasesi bought last ease vista hearing fuss
1335	33	286028	2718446	2718149	Bullseyestrat	2/29/08 8:11 PM	1.20431586E12	yep few times	bought pentium compaq deskpro pcs past offlease vendors ebay tigerdirect good results usually diy pc builder scratch bought people use computers whatnot acutally using mhz computer windows programs games good results most recent pc bought refurbished gateway core duo laptop fantastic results laptop everything wanted factory refurbish laptop windows xp media center huge plus seeing how last laptop sold vista slow results among things
1335	34	286028	2718484	2718440	marph321	2/29/08 8:23 PM	1.20431658E12	never really put thought buying refurbished	kid growing early didnt money car fixed someone else learned self ended being machanic next years bought st computer trs color computer time went computers got easyer work learned how build computers soft ware beat begining lot work couple wacks side head finaly worked too suppose works trust machanic cars computers
1335	35	286028	2718524	2718400	rburtnick	2/29/08 8:47 PM	1.20431802E12	cannot upgrade further	pull trigger hard drive ill need years take memory cpu weak onboard video shared ram stinks motherboard wont allow video card time though built plenty systems really barebones how barelybuilt pop hard drive maybe few gig memory upgrade
1335	36	286028	2718522	2718149	my96xjs	2/29/08 8:47 PM	1.20431802E12	inputing speak	march bought compaq presario us laptop warranty yr problem early compaq picked their expense same day turnaround havent problem lt gets rugged everyday use worked wonderfully month ago gb hd started go south gave time complete backup picked gig replacement reloaded data expect last until decide buy duo desktop different building own interested buying refurbd unit buy refurbd thinkpad once got rid due unit didnt light weight unit wanted something rugged
1335	37	286028	2718542	2718417	rburtnick	2/29/08 8:54 PM	1.20431844E12	oem outlets	juicy name names please
1335	38	286028	2718536	2718149	layitlo	2/29/08 8:54 PM	1.20431844E12	NIL	certain brands find brand price afford work pcs resale shop weve got alot namebrands redone being save money buying debranded pc sites sell bought couple off ebay were refurbished were great pcs mean mind buying recertified car why should different pc saves ya money most people days good thing
1335	39	286028	2718551	2718149	dorie boeye	2/29/08 9:06 PM	1.20431916E12	way before	got pits ran slow always problem company never around needed fix comp always excuse every thing real prolblem took month change change keep changing parts work finally gave got lawyer involved thretaned go court big companies thay anyone how rally work mi hand whatch back pepole whatch big cahunas look thanks bdsally
1335	40	286028	2718557	2718149	bea581	2/29/08 9:14 PM	1.20431964E12	course	great luck refurbished dells great deal encountered problems
1335	41	286028	2718565	2718149	liteways	2/29/08 9:28 PM	1.20432048E12	problesm recertified equipment	price right makes sense buy recertfied refurbished equipment bought lot problems bought computers built myh own computers
1335	42	286028	2718566	2718440	liteways	2/29/08 9:31 PM	1.20432066E12	refurbished	done reputable company bargan however anything else need product fits needs wont matter refurbished
1335	43	286028	2718593	2718149	boshsb	2/29/08 9:53 PM	1.20432198E12	really depends	normally older comps free refurb myself having done learned trust hdd over years old company refurbished far cpus mobos go cpus rarely fail motherboards loose certain functions generally add cards fix those issues however best budget systems build yourself age doesnt matter high quality slower machine alot less game deal vistawaiting sp before try xp runs problem limit services however laptops stay away never seen laptop worked mean work heat such small box asking trouble anyway
1335	44	286028	2718581	2718149	prevlaige24	2/29/08 9:55 PM	1.2043221E12	buying refurbished computers	yes recommend buying going buy certified refurbished stores rolls roys bought before old desktop computer using unitl already years good condition though core duo
1335	45	286028	2718596	2718368	metalnorphasis	2/29/08 9:57 PM	1.20432222E12	recertified computers	recertified depends motherboard bought almost years ago dollars particular vendor dollars factory recertified maybe old gold respects technologyperformance need summed brought perspective
1335	46	286028	2718603	2718171	TMSAssoc	2/29/08 10:07 PM	1.20432282E12	price yes features	partially correct variance price between rebuilt major difference while latest near latest cpu doesnt else small hard drive limited ram basic graphics etc while rebuilt older cpu larger hard drive times ram graphics card idea trade offs price issue recently purchased ghz small todays standards hard drive cdrom basic features happy machine shortly swapping larger medium sized drive todays list machine adding dvd writer writer unfortunately specced reason upgrade cutting edge computer user doing tax preparation bookkeeping doesnt require latest greatest fact reason built machine collection parts hard drive fact couldnt affordable tax prep program dos migrate windoze wouldnt go xt
1335	47	286028	2718607	2718149	Scarlett128	2/29/08 10:17 PM	1.20432342E12	yes dell	build most own desktops bought dell desktops dell notebooks dell outlet dell desktop brand bought cost over runs perfectly although retired typing dell inspiron notebook bought dell outlet never given minutes trouble shortly purchase dropped ceramic tile floor bent usb ports beyond recognition computer never stopped working runs addition dell dell dell refurb notebooks bought dell dimension refurbs dell dimension refurbs thrift store dell poweredge server excessively dimension barely service today problems softwarerelated addition grandson dropped dell cpi notebook really old ceramic tile floor totally destroyed keyboard replaced never missed beat somehow believe newest notebooks today manufacturer withstand kind abuse never use dell warranty never buy come never needed technical support dell computer problem simple question talk people three different continents however dells online technical support best ever seen manufacturer community forum good source information people horror stories dell computers those usually ones told those folks yell loudest side coin supersatisfied dell customer last thing specials dell running their computers cost less comparably configured refurbs rather refurb brand spanking dell different designer colors wouldnt buy anything elserefurb brand
1335	48	286028	2718613	2718149	kasjes	2/29/08 10:33 PM	1.20432438E12	never gave thought	ever wanted replace computer lucky need wasnt immediate pick most expensive top line computer best extras available price write info down wait months exact computer half price found getting computer today depreciates fast wait month till cheap way never hve buy refurbished
1335	49	286028	2718635	2718364	splatthewonderfly	2/29/08 10:45 PM	1.2043251E12	concur buying manufacturer works	liable extend warrantee though problems refurbished system end covered repairs replacements purchased dell older system started fail most solid machine owned before buying compared statistics failure rate rate refurbished machines rather tearing down machines andor scrapping often found problematic element replaced repaired before selling discounted price reasons purchasing refurb buy yesterdays news instead paying top dollar current top line anything close increase cpu speed marked next big improvement find unnecessary pay cost extra otherwise cpu runs slower fastest machines run applications games need years come systems house kids myself roommate xp sp
1335	50	286028	2718663	2718303	adrienne50	2/29/08 11:22 PM	1.20432732E12	enviroment	said depends mostly might buy mac laptop refurb tend buy fastest newest processor afford idea were becoming plastic heavy metal world trash heap longer hold computer happier refurb already dayold bread particularly build own less buying readymade laptop might buy refurb same reason time possible were less able sink cash laptop might tempted go refurb allow buy faster computer look consumer reviews buying expensive critical items lot down time fixing equipment whether retread bargain good deal doesnt involve spending hours repair multiple stopovers flight
1335	51	286028	2718665	2718149	tannisgirl33	3/1/08 12:02 AM	1.20432972E12	buy refurbished recertified computer	refur recert computer selling completely updated purchase checked best buys geek squad company person legitimatemost time walk through components programs computer take same caution buying car
1335	52	286028	2718678	2718149	tyltotheler92	3/1/08 12:03 AM	1.20432978E12	really depends	computer parts exactly part replace part theoretically should work percent time say matter opinion brand how refurbishers brand warranties kinds proof good job most computers refurbished rd parties actual company were made although buy refurbished product right price apple emac bought refurbished lately rd partyabsolutely love
1335	53	286028	2718673	2718678	gabrolena	3/1/08 12:36 AM	1.20433176E12	really depends	never computer bought yardsale knew owneri paid ksd tiger came canon inkjet printer scanner several game blank cdsa circuit protector jewels almost oak desk couple months bought lightening hit our house fried circuit breaker tv microwave deep freezer thought computer complete loss too insurance company olny gave computer old friend mine computer wiz kid he checked put processor motherboard using printer scanner total replace mouse replaced cd burner dvd burner please explain why sister bought hp fixed months later nephew bought dell bells whistles shop times slow oh amd sempron mine run xp pro
1335	54	286028	2718690	2718551	gabrolena	3/1/08 12:47 AM	1.20433242E12	depends	wish people consider something keep telling people build most people wouldnt thing building computer youre geeks doesnt everyone wouldnt let husband touch computer never work hes great guy he barely knows how check his email
1335	55	286028	2718694	2718149	mornmoos	3/1/08 1:00 AM	1.2043332E12	recertifiedyes	yes buy business notebooks direct dxxxs leasing company waited off lease year old machines fast enough desktop capable needs dxxxs computers graded come back those graded premium sold directly each unit batteries built bg wireless working os installed clean hard drive remainder warrantee valid comes full legal windows xp cd time restore disk note business machines swap their drives less minute often press hidden button happy machines over year upgraded memory hard drive linuxno problem machine latest machine came gb memory standard received state tax quick cheap shipping plus expect recertified machines work unpacked real human saw worked money saved each machine
1335	56	286028	2718700	2718149	ckelly327	3/1/08 1:46 AM	1.20433596E12	check seller	bought desktops laptops last year hesitate email question seller auction sites look power seller over approval rates look someone who selling dozens basically same computer range options generally means coming off lease programs afraid ask why seller many theres difference between copany retooling their accountants retooling their salesmen field latter rough their laptops
1335	57	286028	2718736	2718151	willum08	3/1/08 3:13 AM	1.20434118E12	too	always build own desktop pcs therefore control over spec far laptops concerned buy
1335	58	286028	2718727	2718149	steveflett	3/1/08 3:21 AM	1.20434166E12	refurbishing old pc yes worth go	building refurbishing old pcs back days old enough power pull foreskim back sorta thing difficult process back managable aftwr swearing guddelling around inside box sight easier although bug bear trying find drivers date components components manufacturers stamp id fould refurbishing old pcs sometimes help use everest program identifies components system takes whole load major hassle process admottedly refurbishing doesnt always successful desired outcome saying learning process always worth dismantling pc resurrecting alway find something useful
1335	59	286028	2718746	2718149	tlcpro	3/1/08 4:06 AM	1.20434436E12	refurbished	recently bought refurbished gateway mseries notebook tiger direct love paid less half paid desktop four years ago works charm problem getting vista recommend gateway products their quality their customer service wont buy anything else
1335	60	286028	2718765	2718149	AlecJ248	3/1/08 4:27 AM	1.20434562E12	refurbished computers	yes machines use present refurbished older runs win se kept private purposes usually go anywhere near internet keep bank details letters etc bought local shop us years ago running modified memory changed cd cdrw added over years dimension dell outlet found needed add bits pieces time time playing electronic systems part fun worry using secondhand electronic equipment discount secondhand allows addsubtract components own designs piece electronics worked previous owners work most going die died buyer
1335	61	286028	2718771	2718149	gimmefreestuff	3/1/08 4:44 AM	1.20434664E12	refurshised computers	brother mainly surfs net sends receives email got great refurbished computer gim atlanta he gave brand emachine best buy xmas nightmare students light users mainly document computer id definitely go reliable source gim anyone own place treated fairly buying components build yourself
1335	62	286028	2718784	2718367	AERIIAL	3/1/08 4:57 AM	1.20434742E12	refurb problem	recently purchased inch hd lcd refurbished warranty price many products such computers tvs returned stores such best buy circuit city people who purchase whim realize afford keep purchase payments therefore th item returned said defective time nothing wrong unit sur ill buy refurbished
1335	63	286028	2718778	2718149	DebT	3/1/08 5:07 AM	1.20434802E12	yes	purchased refurbished emachines computer almost years ago tiger direct never problem bargain features never thought use time sd card reader happy
1335	64	286028	2718795	2718149	mrskelly	3/1/08 5:14 AM	1.20434844E12	need computer	computer love hard part whatever upgrade existing unit long possible computer bang buck watch sales read many professional user reviews thanks cnet folks who give reviews opinions never disappointed purchase refurbished computer great shape tendency work laptops death need something thats got power features need without too many whistles bells need youre getting desktop kids go myspace go ahead refurbished need something youre going put through paces save read reviews buy
1335	65	286028	2718793	2718149	nesdave1	3/1/08 5:18 AM	1.20434868E12	never thought	lots pcs bragging build em simple build easier where started hobby wife bought hp years ago works fine several hdd changes runs xp thats fine wouldnt upgrade os amchine old hardware being created drawback buying off shelf old hardware good luck decision
1335	66	286028	2718807	2718149	jaymac1500	3/1/08 5:52 AM	1.20435072E12	most likely	build own use parts control actually expensive prefer fact refurbished indicates possibility were problems unit past additionally warrantys often too short trust
1335	67	286028	2718833	2718149	jodokes	3/1/08 6:26 AM	1.20435276E12	depends doing good research subject model	refurbished inferrs computer being brought back conditions cases might find entire line computers brought back conditions reccommend doing research find features model company trust refurbish fine price right features need go personally purchased refurbished computer many features could afford never regretted purchase
1335	68	286028	2718846	2718149	teamdave	3/1/08 6:29 AM	1.20435294E12	worked	buying factory refurbished sony desktops years four use working fine oldest years old except got hit power surge never repair refurbished gateway laptop thats perfect difference found between computers cost half cases less half difference shorter warranty plus terms warranty virtually impossible use knock wood never occasion try
1335	69	286028	2718849	2718149	nghiavtu	3/1/08 6:33 AM	1.20435318E12	refurbished laptop desktopl	mind buying iff speed should greatram harddisk many others accesories should included who buy through paypal cash beltokogeyahoocom call pay ten desktops provided ship
1335	70	286028	2718857	2718151	Mark Esposito	3/1/08 6:44 AM	1.20435384E12	building own computer	ne advised many things timing everything purchased nice dell xps laptop bells whistles price budget laptop due fact refurbished off due sale figure got unit price under warranty runs fine th refurnished unit bought dell while admit return hassle such problems buying reconditioned fact prefer
1335	71	286028	2718875	2718149	vicjosleodelg	3/1/08 6:54 AM	1.20435444E12	futuro informatico	mis respetos mr lee toda esta comunidad virtual es cierto tengo aos de edad hace aos estoy en el mundo de la informatica miro hacia atras recuerdo las junto con las apple iic sonrio pero tambien admiro de como en la actualidad la tecnologia va con pasos de gigante evolucionando inmensamente cada dia debido lo antes sealado compraria una computadora reconstruida dependiendo de los dispositivos internos del hardware estos deberan tener minimo la opcion de soportar actualizaciones en sus drivers que la mayoria de los actuales programas corran se ejecuten sin problemas el presente tecnologico informatico es tan solo un pestaeo lo real es la evolucion creciente del mismo mil graciasvicjos
1335	72	286028	2718878	2718149	dmuder	3/1/08 6:56 AM	1.20435456E12	refurb vs	march purchased refurbished gateway gt tiger direct worked flawlessly running mce gigs ram purchased extra gig tiger machine speed demon converting old hi mm home tapes digital burning dvd ads instant dvddv attended cnets online course speed windows xp speed computer others refurb reliable saved close usually wont buy extended warranty discovered most bad electronics konk days usagei advise little research product purchase read reviews others taken refurbished plunge good luck
1335	73	286028	2718881	2718736	sg-max-mp11	3/1/08 6:59 AM	1.20435474E12	too	massage field manual
1335	74	286028	2718894	2718149	BoBB49	3/1/08 7:05 AM	1.2043551E12	buy recertified desktop depending	consider buying recertified desktop especially interested pieces contains example instead paying vista buy recertified computer vista plus good size hard drive dvd burner memory newer motherboard fair case keyboard mouse power supply modem sometimes video card monitor less price pieces holds true afraid inside unit need parts last bought tigerdirectcom loose cable connecting cd drive runs flawlessly dell optiplex cost same price hard drive operating system xp home edition
1335	75	286028	2718903	2718149	lightningboy7	3/1/08 7:11 AM	1.20435546E12	awayays buy computer	reason buy computer buy computer often computer standard five years
1335	76	286028	2718912	2718149	raynman55	3/1/08 7:19 AM	1.20435594E12	depends	refurbished isnt bad way go price right whats how easy upgrade bought year gone upgrading own building own definately something over little time unfortunately technology moving fast hardly keep latest greatest great thing building own foundation where start mother board processor power supply allow upgrade most refurbished end having put power supply mother board anyway great deals building machine bought gb ram really nice video card ps ok talked build own next time
1335	77	286028	2718921	2718149	doodeee	3/1/08 7:30 AM	1.2043566E12	refurbished	using hp pavilion refurbished cost hp cost stores over working fine lot updates need themthey gave lots good software
1335	78	286028	2718944	2718149	Ladyhawk	3/1/08 8:08 AM	1.20435888E12	yes	bought brand computers dsktop recently laptop yrs owning computersonly gave us problems os lol rest great bugs nothing careful where whome buy usually ok buy our refurbished ones normal geeks
1335	79	286028	2718975	2718149	billheis	3/1/08 8:12 AM	1.20435912E12	use refurbs	work nonprofit charity refurbs computers under funded schools school programs boys girls clubs ect strickly stay business models ie dell latitude compaq evo ect found staying models luck outcome saying ratio units arent worth investing repair spare parts answering question stay high end units company stand behind their sales
1335	80	286028	2718983	2718149	tsmgroup2	3/1/08 8:24 AM	1.20435984E12	bought refurbished computer before os	bought old dell nephew few years back runs fine xp longer worried becomes dated xp anymore wwwubuntucom youll why switch youll never sorry either dl due slow bad connection cd free updates free support use love winehqorg answer compatiblity issues versions guys intend trading tossing old system drop off people who use
1335	81	286028	2718991	2718216	germ-v	3/1/08 8:26 AM	1.20435996E12	brand key	second post thread mentions topbrand models good refurbished buys important thing realize purchase refurbished desktop maybe laptop dell ibm apple maybe hp really depends reliability company behind product never purchase refurbished computer kind budget manufacturer basically although theyll give warranty their service quite likely subpar having hellish experience averatec laptop moment desktops suggest building own computer before purchasing refurbished friend help advantage desktop components independent laptop easier recondition laptops hand most components integrated motherboard something goes wrong goes whole thing recap heres need consider prefer refurbished over selfbuilt brandare going warranty support need thing quality product begin form factor desktop vs laptop how really saving over selfbuilt
1335	82	286028	2719006	2718149	xNtx	3/1/08 8:40 AM	1.2043608E12	yes purchase refurbished electronic items	build own computers scratch becoming less expensive purchase refurb modify purchased various refurbished items reputable vendors past years without problems figure least human ok refurbished item working left factory time around
1335	83	286028	2719010	2718149	pipefighter342	3/1/08 8:44 AM	1.20436104E12	needed full time computer voip phone magic jack	purchased refurbished computer magic jack voip internet phone year each next years down side need computer time use refurbished desktop xp exclusively magic jack travel county lot magic jack allows phone us canada free long internet access using laptop far refurbished computer working great
1335	84	286028	2719011	2718149	aaaaasquawk	3/1/08 8:46 AM	1.20436116E12	heartbeat	advert dell however past ten years purchased over dell refurbished desktop computers friends relatives local animal shelters myself great savings performed flawlessly exception bought myself second attempt fix problem failed promptly sent hassle continue purchase refurbished computers confidence
1335	85	286028	2719043	2719010	dmuder	3/1/08 9:21 AM	1.20436326E12	magic jack	seen advertsed isnt enough info their website need existing phone number work
1335	86	286028	2719044	2718149	Lrrry	3/1/08 9:22 AM	1.20436332E12	refurb	yesbut buy macs buy refurb probably once year business keep years give away never problem larry
1335	87	286028	2719033	2718149	nighs2u2	3/1/08 9:23 AM	1.20436338E12	refurbished why	thought buying refurbished dvd hardrive setup why were refurbished opened lot insight models were breaking down whywith desktop computer most likely refurbished features setup computer usually buy mine deciding parts letting store assemble warrant however laptop maybe search web find why breaking down needing refurbished
1335	88	286028	2719057	2718149	rwbms-socal	3/1/08 9:37 AM	1.20436422E12	vertainly possiblybetter	though built own computers invention pcs probably trust referb recert computer thoroughly checked before sending customer vendor computer usually tested level while bought several refurb recert peripherals over years problems except technology growing quickly never purchased computer until few weeks ago deal could refuse duo quad beyond certainly consider getting recertrefurb computer
1335	89	286028	2719067	2718149	weirdboy09	3/1/08 9:37 AM	1.20436422E12	computers good deal go right place	buy brand computers recently purchased computers deals nowadays machine incredible software developer fast machine requirement nothing good luck machines purchased machine writing cost computer store street bit advice place buy reputable good instore warranty machine came day warranty pretty good machine failed days promised instore swap important thing ask sometimes wait swap their vendor could take days weeks knowledge how work computers yourself ie change ram hard disk drives really great deal computers use old parts boost their performance always keep data backed follow good data management scheme where information consolidated place experience hardware failure recovery easy cheap
1335	90	286028	2719082	2718149	jesskalinowsky	3/1/08 9:57 AM	1.20436542E12	anything else buys second hand buyer beware	never buy second hand refurbished computers buy anything else refurbished buying car somone elses lemon day warranty norm refurbished kidding within days barely time ascertain issues give least day unlimited warranty maybe searched many sites minimal difference say buy bells whistles long warranty toyed concept leasing cannot really advantage small business owner shopping most bang buck laptop brightest bulb christmas tree real tech savvy help laptop guru appreciated suggestions appreciated lots memory fast anyone majicjack works laptops works fine desktop great value jess kalinowsky west hollywood ca
1335	91	286028	2719114	2718149	adascoli	3/1/08 10:45 AM	1.2043683E12	done past never	last desktop bought yrs ago refub nothing problems computer addition technical issues hard drve completely wiped while daughter looking something specific computer noticed porn presumably previous owner computer agree most comments read users build own pc desktop everything exactly way
1335	92	286028	2719116	2719082	rwbms-socal	3/1/08 10:50 AM	1.2043686E12	reply jess	jess most factory refurb recert computers periphrals carry warranty time year gaggle newer faster things market
1335	93	286028	2719170	2718149	cityshifter	3/1/08 11:31 AM	1.20437106E12	someone elses	need say problems seem program related programs within thier machines th pc last yrs find gotten many jams due affiliations programers those trying building thier own system fix types best ever saved many old pc called stealth come wonder happen jim hp acquired flea market bought program thuis far many persons utilize system internet thru run safe upkeep step maintence failed upgrade simply errors show our machines swear check sent soon need say pc dual drives games mrs kids corrupted variable spaces someday perhaps unloading adding memory cd burner programs within work way should way anyone selling copy xp havent found mine pickin hp tried free space few copies system programs files deleted themselves making few rather delinquent otherwise yes perhaps buy
1335	94	286028	2719203	2718149	bluebery	3/1/08 11:58 AM	1.20437268E12	refurbished cpu bought	expert daughter wanted laptop could afford cpu buy market build own bought her dell refurb off ebay power seller paid under over dell laptop allow pay extra ebay insurance purchase price give shot mine wears couple sellers bookmarked occasionally check available kind prices neighbor who works computers told he bought his wife yes always taking chance guess comes down skills budget thanks
1335	95	286028	2719276	2718149	hdcom	3/1/08 1:30 PM	1.2043782E12	gotta keep	purchased hpdv laptop never considered thats stay hardware technology software cost long run start over old version photoshop start using old offer upgrades itthats hardware tooit cost long run trying keep
1335	96	286028	2719258	2718149	willyoung62	3/1/08 1:47 PM	1.20437922E12	refurbished pcs	work recycling north scotland recycle waste sell refurbished pcs value money built spec cost fraction price paid consumers why go pc world numpty sell something could build exactly require live such disposable age belive look local civic amenity site newest regard happens our old nearly pcs could give family member pass kids buy refurbished makes sense enviroment pocket
1335	97	286028	2719291	2718149	welrdelr	3/1/08 1:55 PM	1.2043797E12	nt	NIL
1335	98	286028	2719289	2718149	vryblss	3/1/08 2:17 PM	1.20438102E12	refurbished computers	bought onean hp four years ago fine
1335	99	286028	2719378	2718149	dbrown51896	3/1/08 4:59 PM	1.20439074E12	yes purchased refurbished dell	purchased refurbished dell years ago received great price computer worked fairly power supply go fairly simple replace although cost around shopping refurbised dells computer daughter
1335	100	286028	2719385	2718149	MRWIGGINS	3/1/08 5:05 PM	1.2043911E12	buying refurbshied recertified	each purchased nothing outstanding regrets suggestion check company compare least three companies complaints consumers before buying najwaj
1335	101	286028	2719397	2718149	mbcowan	3/1/08 5:10 PM	1.2043914E12	russian roulette	essentially buying refurbished product playing russian roulette might save money others noted difference between refurbished significant time worth difference moreover small savings often offset limited warranties days fact equipment likely outdated obsolete replace quickly generally unreliability refurbishing process too often manufacturereven best ones acting good faith always case able reproduce problem caused prior owner return manufacturer proverbial sunshine treatment time discover problem corrected too late bottom line might save small change refurbished model personally use time dealing computer already history problems
1335	102	286028	2719418	2718149	PatrickOne	3/1/08 5:37 PM	1.20439302E12	refurbished computer	yes buy havefrom computer technicianeverything
1335	103	286028	2719408	2718149	MitCon	3/1/08 6:03 PM	1.20439458E12	recently purchased great refurbished hp	built several computers needed recently didnt time buy components build purchased refurbished hp although warranty days thats days longer built problems far except vista thats issue
1335	104	286028	2719422	2718149	GTAlger	3/1/08 6:04 PM	1.20439464E12	poll buy refurbished recertified computer	unless replacing existing system normally buy system every years able keep newer video cards hispeed devices supported older system
1335	105	286028	2719443	2718149	ebrichstein	3/1/08 6:19 PM	1.20439554E12	yes definitely	reccently purchased refurbished hp inch tablet pc loaded features ubidcom always lots refurbished coputers sale lot fun bidding computer got excellent support computer shipped hp came hp day warranty option buy extended warranty wanted could happier computer service received ubindcom advice go
1335	106	286028	2719427	2718149	amgcube	3/1/08 6:25 PM	1.2043959E12	buy car house	owned computers refurbs several handmedowns refurb laptop running couple years service replace power supply refurb desktop thats going strong too computer cost small fortune worth dime today second box fairly bit impulse purchase cost parts heck lot less buy
1335	107	286028	2719438	2718149	deebeefc	3/1/08 7:37 PM	1.20440022E12	never gave thought	living san diego access slew mom pop computer stores top line systems were available often less half price name brands systems were built off shelf parts easily replaceable something goes wrong able build own open system add update part nowadays looks name brands becoming competitive moms pops getting scarcer frys though similar moms pops select parts build computer sevenyear old desktop updated frys motherboard died motherboard cpu ram added large hard drive dvdcd burner fiveyear old dell laptop purchased play computer games while recovering surgery wasnt biggest best served purpose use income tax schoolwork dell outsourced their tech support india wont buy americans put work although less expensive corporations outsource
1335	108	286028	2719490	2718149	quaoar--2008	3/1/08 7:57 PM	1.20440142E12	purchased six refurbed notebooks good	purchased six refurbed notebooks five hps sony through costcocom performing expect machine five years old three threefour years old year old likely saved total looking refurbed hp notebook costcocom discount current costco price note coscos refurbs thirdparty refurbishers hp sony
1335	109	286028	2719518	2719490	koppandson	3/1/08 8:43 PM	1.20440418E12	yes refurb	electronics buy refurbishedexcept last purchase dell never problemsever knock wood
1335	110	286028	2719551	2718149	BrendaDNotary	3/1/08 10:39 PM	1.20441114E12	never buy refurbished	recently bought different refurbished hp laptops within days each each different problem tech support team could correct bought toshiba laptop nearly year flawless thought hp awesome product until those three bad ones never buy either refurbished hp own concerns opiions though vista subject
1335	111	286028	2719588	2718149	trialandera	3/2/08 3:23 AM	1.20442818E12	yes	bought off ebay power sellerits delland runs smooth fastnot single problemjust describedive monthsbut far good
1335	112	286028	2719672	2719588	baggage1	3/2/08 6:39 AM	1.20443994E12	NIL	st laptop came defective replaced newer model solid performer over year
1335	113	286028	2719727	2718149	rmailman	3/2/08 8:12 AM	1.20444552E12	refurbished computer way	problemswith refurbished computers usually come markedly shortened warranty periods ok were drastically discounted seldom almost always looking sale fact last notebook bought great sale cheaper few refurbished models were less equippped how whatever got returned fixed unless course believe current high quality tech support service
1335	114	286028	2719796	2718149	drstove	3/2/08 9:50 AM	1.2044514E12	refurbished computers	considering perceived risk involved purchasing pc believe prices far too high regularly able find comparable model refurbished personally benefit purchasing prices were half machine might consider way
1335	115	286028	2719907	2719438	cityshifter	3/2/08 12:22 PM	1.20446052E12	laptop starbucks	lived san diego years various friends seen laptop cell phones hand taking advantage hook thru starbucks downtown various sites old town area found fasinating tho plugged cell phone disappeared day charging many friends personal library usage san diego always seemed higher pay scale purchase bought computer while walking thru tiajuana flea markets while friends lived mine great extent years ago worked fine wasnt sales individuals library always backed users unfortunately relocate virginia girlfriends employ gaslamp district hadnt health comp las flores hotel she became ill lost everything twice she prettty ill resold pc working fine
1335	116	286028	2719921	2718151	tippper0101	3/2/08 12:51 PM	1.20446226E12	re nt off building own	right buy compaq evo ghz gb ddr ecc dram got yes system expecting compaq evo system let sit half day put together fired surprize dxdiag system properties ghz mb ddr ram ecc server qualityhmm gave compaq call told must error packing told come pick pay thingi explaind send parts replace themto suprize sent gb ddr ecc drams meg ati redeon video card ghz cpu extra costthey told pack old parts someone pick upso answer questions were asked waswill buy refirbished computer yes mistakes keep mind who owned system before how treated how parts handled our quality standards css
1335	117	286028	2719917	2718149	rcool3	3/2/08 1:17 PM	1.20446382E12	yes id buy refurbished computer using	good luck refurbished computers except machine bought tiger direct didnt tiger direct started warranty days shipped unit didnt anything machine right away bought jaycee fund raiser died third boot mother board hard drive gone let dog use machines fire hydrant good luck dell rcool
1335	118	286028	2719952	2718149	dcalhoun38581	3/2/08 1:30 PM	1.2044646E12	re poll buy refurbished recertified compute	depends always bought number reason why someone seriously consider buying refurbished system reasons person might buy refurbished could include must replacement computer cannot afford must replacement computer willing pay price powerful enough suit their needs knowledgeable enough need rely tech support theyd bought frugal everthing spend money dealt particular outlet before trust buying changing os intend use os applications already work fine refurbished system picked reasons always bought include never buy least expensive most expensive system offered use system until something major fails such motherboard time happens parts outdated point being unavailable time especially point buying whenever changing os such vista unusual problems bugs directed back dealers tech support bugs should worked before product hits market place dennis cmcsa
1335	119	286028	2720035	2718151	Bridget Nanette	3/2/08 3:53 PM	1.20447318E12	buy referbished anytime avaliable	bought several referbished things kodak camra dell laptop computer toshiba lcd hdtv work good referbish something finished high standerd thats good ones highly recommend buying referbished anyone thing bit disipointed
1335	120	286028	2720037	2718151	Bridget Nanette	3/2/08 3:56 PM	1.20447336E12	buy refurbished anytime avaliable	bought several refurbished things kodak camra dell laptop computer toshiba lcd hdtv work good referbish something finished high standerd thats good ones highly recommend buying refurbished anyone thing bit disipointed
1335	121	286028	2720050	2718149	parkzone	3/2/08 3:59 PM	1.20447354E12	NIL	most time low end computer cheap true refurb current technology ok saved chunk change were going purchase anyway afraid refurbs ripoffs most time ripoffs
1335	122	286028	2720052	2718149	mtownron	3/2/08 4:11 PM	1.20447426E12	refurbished computers	anykindno however buy refurb mac great pc side never always build own
1335	123	286028	2720059	2718149	patch27	3/2/08 4:15 PM	1.2044745E12	buy refurbished computers	yes refurbished reputable company save money build computers build mine couldnt build buy refurbished
1335	124	286028	2720197	2718149	GoodTimeCharlie	3/2/08 8:31 PM	1.20448986E12	done twice	bought desktops via ubid hp years ago sony years ago great luck using sony got monitor seperate purchase sony state art bought saved least retail price got great deals great equipment hardwaresoftware problems
1335	125	286028	2720340	2718149	osbhessler	3/3/08 4:13 AM	1.20451758E12	yes bang buck	husband purchased refurbished dell workstations january theyre running fine major issues minor dell rushed us part overnight client needed laptop three years ago recommended dell refurbished her kids spilled sticky juice keyboard dell rushed her keyboard overnight charge she purchased dell refurbished desktop laptop she teenagers needed laptop last year went dell refurbished latitude excellent choice dell stands behind their machines provided us excellent customer service years complaint prefer speaking someone india hire americans dell
1335	126	286028	2720594	2718149	bradberry11	3/3/08 10:10 AM	1.204539E12	yes	buy refurbd computers equipment home theater sound system long factory refurbished carry same warranty item months ago bought acer tower athlon ghz gb hdd gb memory video ethernet modem dual layer dvd burner usb speakers way memory card reader surround vista premium installed brand box problems refurbs qcd fully tested different factory techs nd time through usually intense diagnostics run machine find problems most refurbs simply open box items customer returns
1335	127	286028	2720627	2718149	Big_Toe	3/3/08 10:26 AM	1.20453996E12	refrurbished conditional yes	evry thing else electronic buying decision based research before buy times refurbished computer great deal say lot money over system came off shelf buy systems doing way market fickle hardware proces change possible pick last years model using prices close find people who pay home built refurbished systems often fail getting often problems getting software keys ofter hidden issues people need research check warrentees
1335	128	286028	2721158	2718149	bluechimera	3/4/08 2:08 AM	1.20459648E12	myself clientyes	myselfi generally build own spend lot time matching specs vs prices biggest bang per buck tend use highend parts machines scsi disks graphic cards sound cards fast fsb memory however client who primarily going use computer accessing internet work processing perhaps storing pictures refub good deal typically install opsys users choice partition disk faster access easier maintainability usually add ram most systems come enough hp good choice maintain their machines longer most venders means old system current drivers next time bill gate decides he wants jet releases operating system
1335	129	286028	2721214	2718149	inventivemind	3/4/08 5:47 AM	1.20460962E12	buy refurbished certified computer	personal experience exact matter done many times repair pcs community many customers spanish speaking mostly mexican men women surprised mexican men women quite computer savvy people customers who mexican use skype keep touch family back home webcams talk look eachother big part their coping usa alone men often work send money home lonely computer extremely important addition repairing computers help people purchase computer where come handy mexican customer purchase laptops mostly need laptops fast willing pay cash sometimes purchase ebay times refurbishers many laptops refurbished stickers before ever sell product go over check works wirelessly check operating system computer stable stresstest multitasking crashes download programs run virus scans run scandisk check device manager hardware drivers updated etc experience refurbished laptops computers reliable isnt say lemon come around every once while personal take refurbished laptops whoever selling computer somewhat professional provide spec sheet overall condition report find reports accurate honest read refurbished computer thinking buying before pay sometimes guygal purchase computer where clearly said dvd drive working calculated overall price system yet person gets computer their lack knowledge reading anything leads believe refurbished items broken worthless before theres false negative reputation floating around say price right youve read agree buy buy buy wont dissapointed never refurbisje
1335	130	286028	2721270	2718151	YeYe55	3/4/08 7:34 AM	1.20461604E12	reburbish computer	ask packard bell
1335	131	286028	2721444	2718149	mr_bb454	3/4/08 10:24 AM	1.20462624E12	yes buy refurbished unit	buying thing need look costs provides bought compaq refurbished rebates came processor ghz mb ddr ram cd player windows xp less buy xp pro store got computer processor fast compared todays dual quad core nm processors ddr ram slower ddr ddr got use old ram laying around earlier upgrades gb ram dvd burner mb video card less nvidia ati video cards bought newer computer cost spent whole unit completely satified purchase
1335	132	286028	2722549	2718149	smokee	3/5/08 5:45 PM	1.2047391E12	buy refubished computer	yes cash pocket buy parts upgrade athlon dual core asus board gig ram etc already bought gb sata hard drive however got city late vancouver bc parts place closed instead found myself future shop where found refurbd hewlett packard few bucks budgeted parts same specs desired bought complaints however most common computer comes loaded bloatware although computer nerd guess problems figuring go problem computer disks included instead restore partition supposed made restore cds hesitating trust process shot seems restore process probably reformats harddrive blowing away files songs videos pictures drive while thinking finding way backup files sent over network gb drive old athlon installing program computer inadvertently installed restore partition before smart starts scorning making making such mistake thats easy computers multiple partitions programs installed drives sent partition restore diskmaking process wouldnt work way system start trouble likely buy computer company doesnt include proper system program disks refurbished
1335	133	286028	2722936	2718149	russ666	3/6/08 7:34 AM	1.20478884E12	never never	work deliver airborn express capacity delivery driver saw many returns previously discounted refurbished computers interested shopping computer myself available discuss receiving sendingback customer reasons behind deliveryreturn inevitably answers led conclusion delivery companies many employees who roughly handle boxes despite their claims contrary supervisory personnel inevitably stress speed over careful handling witnessed sorting areas proper handling ought minimum conscientious respectful value relative fragility contents nearly non existent witnessed same kind attitude among fellow delivery drivers competing delivery companies penalized their expected handling times met ignored drop bang few packages fault lie contracting supplier always looking cheaper way enhance their own bottom line refurbished computer tv handhandled individual box item group likeitems strapped pallet largely untouched during delivery process except fork lift delivered pallets unpacked their destination employees who sales value item thus mindful should dropped violently mishandled personal experience own sealed deal returned damaged vcr appropriate refurbishing destination came back damaged sent returned got same result
1335	134	286028	2725369	2718149	tzachyb	3/9/08 7:54 AM	1.20504924E12	depends oem warrenty	yes refurbished original manufacturer provided same warrenty terms period product originally offered productmanufacturer generally believed reliable
1335	135	286028	2725850	2718149	pcsky456	3/9/08 11:20 PM	1.2051048E12	depends	depends refurbished computer most time choose ones
1335	136	286028	2727365	2718663	solaman	3/12/08 3:02 AM	1.20529092E12	gateway gm	buy gateway gm find refurbished anybody where find
1335	137	286028	2808738	2718149	GeekInside	7/9/08 11:22 PM	1.21564572E12	depends situation	tricky situation looked many ways each side valid point prefer build own desktops way control quality every component system eliminate potential problems manufactures including limited bloatware lowendcheap components most hated situation partitioned hard drives backup os restorationinstallation images building desktop fullproof speak experience having received doa motherboards components trying times utilizing reputable parts distributor having patience never ran dead end always satisfied end product besides creative process involves critical thinking come problem solving solutions reality best answer situation education purchased refurbished desktop past girlfriend month limited warranty died months use sent back manufacturer extended support system problems really couldnt figure myself finally turned linux box retarded factory installed partitioned os restoration never worked restoration disks never worked driving batty linux worked great amen ubuntu needed pc family worked swapped motherboard installed xp pro thing works amazingly bad experience refurbished product regret having made purchase good deal overall average joe refurbishedrecertified pc cost effective yes cost pcs come down considerably prior individual mentioned often system components refurb deal brand system research key success never stop learning purchasing pcs never stop learning how work went young boy his family pc dell mhz win disappeared learning basic dos prompt commands knowing literally nothing way system works getting newer pc upgrading components extend life diving piecing together system building boardprocessor recertifiedrefurbished products valuable tomorrow expecting delivery dell laptop reconditioned return executive lease program precision yes most recent processor everything aim use newer laptops carries within graphics card second rated list midhighend graphic cards laptops today dedicated mbs graphic memory rated lists being top being bottom rating bad includes gig ram expandable gigs gig hard drive easily replacedupgrade portable external data space expansion vista xp pro prefer believe match performance program operation graphic benchmarking comparable exceeding marks entry level laptops available manufactures today cost nearly twice paying laptop retailed desktop replacement unit graphic designers artists engineers professionals needing full system power portable unit looked budget laptops newer nothing besides recent processor looking never suffice integrated graphics card standard roughly laptops made many improvements additionally shall never utilize win vista being phased before xp microsoft made determination support xp till vista gone xp pro license recertified laptop comes worth were buy xp pro installation disklicense today remove vista laptop cons matter way concerned receiving recertifiedrefurbished product willing educate yourself find always smart decision made concerning purchase pcs their components simply eliminate financial opportunities without understanding principle knowledge behind foolish purchased recertifiedrefurbished built pcs per spec every situation needs examined separately research appropriate answer should find way educated individual buy refurbished recertified computer yes
1335	138	286028	2819739	2718149	unknownsoundman	7/26/08 4:47 AM	1.21704762E12	referb yes	tried snag referbed dell pentium gig processor gigs ram gb hd dvi xp pro tiger were sold
1335	139	286028	2821730	2718149	repete_smile	7/29/08 4:29 AM	1.21730574E12	build own	build own stop over local pc part store parts modem dvd drive
1335	140	286028	2824498	2718991	repete_smile	8/1/08 8:02 PM	1.21762092E12	dell	dell tech support good
1335	141	286028	2840065	2718149	plumbobb	8/22/08 5:42 PM	1.21942692E12	experience refurbishedrecertified desktop computers	bought refurbished recertified desk tops years ago bought refurbished compac radio shack store st bell phoenix gift growing family kids grade thru high school working years bought refurbished dell xps personal use off years ago problems last year use bought refurbished dell xps years ago discount same family issues until recently straightened without professional help march bought recertified hp vista window media tv remote buycom pleased far however got day warranty nervous probably continue consider refurbishedrecertified pcs allowed buy features less money social security good pcs luxury
1335	142	286028	5237979	2718149	danishwali	11/28/11 10:13 PM	1.32251838E12	bought	wanting save money next pc refurbished desktop computers might best option buy refurbished desktop computers sale away paying affordable price without sacrificing quality worrying being terrible condition looking refurbished pc bought electrocomputerwarehouse product id dellgx gbtower
