5243	0	133231	1502418	NR	marketwatcher	10/28/05 10:43 AM	1.13049618E12	amd processor reliability	intend purchasing hp desktop system running amd athlon processor previous system intel processor amd processor reliable intel processor understand major difference between amd intel price chatter alluding fact amd prone hardlocks anyone facts issues
5243	1	133231	1502559	1502418	R. Proffitt	10/28/05 11:36 AM	1.13049936E12	asking how nail down	office handful athlon lockups intel desktops craft test could run measure bob ps writing athlon machine
5243	2	133231	1502728	1502559	jackintucson	10/28/05 12:40 PM	1.1305032E12	nt nt googled pentium vs amd wow	NIL
5243	3	133231	1504802	1502418	ozos	10/29/05 3:41 PM	1.13060046E12	umhard locks	might thinking ocing community frustration athlonxps produced post week superlocked factory means multipliers cannot adjusted note intel doing pentium ii processors exception es ee might feature somewhat adjustable multi amd leaves fx unlocked oh bob maybe running copies farcry while compiling lotr directors cut divx times over seperate dvd drives might test reliable crash
5243	4	133231	1507589	1502418	jcrobso	10/31/05 12:47 PM	1.13076282E12	amd processor reliability fud	fear uncerenty doubt tactics disparage competoraka amd amds working great running lockups
5243	5	133231	1515541	1502418	marklo	11/4/05 2:46 AM	1.13107236E12	amd experience	self build over year probably most stable system ever owned previous pcs were intels except cyrix peolple athlon xps without issue
5243	6	133231	1515590	1502418	emuelle1	11/4/05 3:31 AM	1.13107506E12	reply amd processor reliability	several amd chips bought athlon mhz chip upgraded intel pentium ii bought athlon ghz chip desktop currently runs experiencing lot lockups chips while those turned windows related problems went away upgraded windows xp wifes laptop runs amd sempron ghz processor reasons switched amd besides price amd hired engineer digital equipment corp bought compaq bought hp dec known their mhz bus bit processors while intel getting bit figured dec engineer running show athlon chip might their fine engineering behind never disappointed
5243	7	133231	1515626	1502418	GotThumbs	11/4/05 3:48 AM	1.13107608E12	amd way	except computer dx computers powered amd lockups experience due os install programs installed built many amd powered systems family friends relucktantly built intel systems those systems cost way amd system yourself favor build own system many resources web anandtechcom many reputable vendors neweggcom quite rewarding many store systems try wow lots additional software youll never use
5243	8	133231	1515629	1502418	jsmumma	11/4/05 3:48 AM	1.13107608E12	experience amd cpus	purchased desktop system assembled locally early amd running mhz system heavily high school students wife teacher engineer run various linux distributions red hat suse caldera dualboot lilo configurations windows today running windows xp home edition sp upgrade original windows se almost entirely word processing microsoft works wife left time save startup time attached laser printer accessed over our home network systems around august collegebound daughter purchased compaq presario laptop radio shack amd mhz mmxtm enhanced processor adequate her purposes college lower cpu cost offset higher cost far superior hpa activematrix tft display threespindle hard drive cdrom drive floppy drive configuration system came windows connected colleges network using novell drivers com pcmcia nic she works october took plunge bought myself hp pavilion notebook computer mhz amd athlon main computer past four years came windows xp home edition upgraded sp run sorts applications microsoft office xp word excel powerpoint outlook visio internet explorer firefox opera borland builder cc software development scilab winamp itunes musicmatch jukebox windows media player realplayer divx player textpad source edit snagit turbotax norton ghost norton internet security antivirus personal firewall norton antispam webroot spy sweeper java vm steem atari st emulator adobe acrobat reader py control software tentec argonaut amateur radio transceiver digipan psk software manner tools utilities written works problems hp notebook pc related progressive failure cable between display rest system leads next amdbased computer recently ordered hp pavilion zv series notebook amd athlon ghz cpu arrives become main computer old hp notebook go surgery under soldering iron diplay running however use external monitor doing right prior bump road using internal display external display dualmonitor extended desktop arrangement based upon experience past anticipated future should ok amd cpus least terms system availability remember reliability mtbf component availability users really care major component repair time mttr probably significant overall good experiences hp products over years hp uses amd processors staking their reputation decision
5243	9	133231	1515651	1502728	cm2gj	11/4/05 4:04 AM	1.13107704E12	amd	use amd years fast stable compared intel cpu most friends systems amd procesors everybody happy
5243	10	133231	1515676	1502418	Osman	11/4/05 4:21 AM	1.13107806E12	amd yess	old compaq laptop amd running fine years selfbuilt desktop amd athlon xp years working almost nonstop without crash selfbuilt desktop amd working superbly year help
5243	11	133231	1515713	1502418	Snorri	11/4/05 4:46 AM	1.13107956E12	problems amd	several amd processors over years being done emachine amd never problems factors important who made processor
5243	12	133231	1515716	1515651	lykos	11/4/05 4:49 AM	1.13107974E12	amd	compaq pressarioleas years old amd processor too lock specially while playing games repalced motherboard intel processor havent lock
5243	13	133231	1515723	1502418	bacaruda	11/4/05 4:50 AM	1.1310798E12	misled intel	although youre right amd processors cost less comparable intel chips thats biggest reason switch find tech savvy friend explain numbers intel chip ghz running ghz performance amd chip rated ghz performance actually running around ghz means working hard same work intel chip means lasts longer due less heat being made check over old articles find net comparing intel chips amd chips youll find almost every case intel lags amd tests made performance working systems friends family years nowill buy recommend intel ever
5243	14	133231	1515762	1502418	adkmom	11/4/05 5:05 AM	1.1310807E12	amd lovely pentium overhyped name brand	overhyped name brand anything advertising built numerous systems use amd performance per dollar value incredible bad cpu yet friend lightening storm take his wall socket motherboard guess cpu put board off he went true story time he listened went ups his system lol tracy
5243	15	133231	1515798	1502418	Mrlfrs	11/4/05 5:19 AM	1.13108154E12	amd processor reliability	amd processor computer love found computer liked back almost didnt buy amd processor glad never problems time buy computer hesitate buy amd processor actually prefer
5243	16	133231	1515825	1515629	psytropic	11/4/05 5:37 AM	1.13108262E12	sorry amd intel	research web gamers user athlon reccomendation san diegovenice core newest socket core unless hardcore gamer athlon building gamer machines amds spank intel bigger selection chipsets until recently nvidia nforce chipsets were available amd nvidia makes nforce chipset intel alot slower amd counterpart using amd long time ever bought nexgen best chips market intel hyped slower expensive faster cheaper same amount stability sounds
5243	17	133231	1515854	1502418	Scribe1939	11/4/05 5:58 AM	1.13108388E12	amd reliable	computers amd processors problem where chip running mgh everything else put chip fine hp runs gig chip problems
5243	18	133231	1515863	1515716	whipdancer	11/4/05 6:02 AM	1.13108412E12	computer	processor need learn separate quality machine built specific components inside machine built multitude machines last amd never pay intels premium
5243	19	133231	1515868	1515713	bcrawford	11/4/05 6:03 AM	1.13108418E12	hp amd processors	amd processor looked faster pentium terms speed amd faster bit processors futuristic bit processors therefore amd processors wave technology finally hp computers offer best sales support extra software such imagezone hardware such lightscribe brands offer free thus hp amd athlon wise choice
5243	20	133231	1515887	1502559	bcrawford	11/4/05 6:14 AM	1.13108484E12	amd ht	hey bob company might using processors designed multitasking most offices require should try upgrading processor ht recent dual core technology could simply instruct staff run few applications time
5243	21	133231	1515891	1502418	1159inv	11/4/05 6:16 AM	1.13108496E12	amd processor	yet upgraded built amds latest greatest upgrading building amd chips win never trouble consider using usually let newest latest greatest sit shelf year way bugs draw backs youll co time work problem mention saving bundle upgrade build
5243	22	133231	1516057	1515891	Themisive	11/4/05 7:06 AM	1.13108796E12	amd vs intel	last time bought intel chip dx time ago though bought market stall cost over ever stuck amd mych managed operating characteristics different typses chips least look over before buy already look operating specs intel others vs amd decided present specs next chip definitely amd bit probably amd dual core model
5243	23	133231	1516067	1502418	tchai61	11/4/05 7:08 AM	1.13108808E12	amd sucks	amd forget intel chip always give same designated cpu power output ie chip always give today yonks came amd over time give less less original powere output amd chip gives twice heat intel chip means exta fans heatsink meaning power consumtion already power hungry pc
5243	24	133231	1516073	1515863	sharee100	11/4/05 7:10 AM	1.1310882E12	amd	built computers amd components needed replacement amd never buy good dealer good heatsink fan wont regret although cases say work pentium lian li check case too
5243	25	133231	1516096	1516067	AlbertW	11/4/05 7:17 AM	1.13108862E12	post joke	post joke doesnt sense novices understand letting everyone
5243	26	133231	1516109	1502418	Gamingaddict	11/4/05 7:20 AM	1.1310888E12	amd makes great processors	past six years built machines using amd processors stability never problem especially once upgraded windows xp running amd athlon gig memory yet encounter problems runs quietly perform several tasks without effort
5243	27	133231	1516132	1502418	bjharshberger	11/4/05 7:28 AM	1.13108928E12	amd processors	amd processors last computers trouble good reliability present notebook computer averatec uses amd athlon xpm excellent reliability bruce
5243	28	133231	1516149	1502418	pc_tech_guy_2003	11/4/05 7:34 AM	1.13108964E12	amd reliability plus	marketwatcher computer technician worked intel amd seen ups downs sides seen people buy wrong type processor far reliability amd intel most part same expect years service however run buying bit athlon somebody told off amds seem fit gaming slot most geeks delight faster processor cheaper intel seems lag gaming market doesnt mean should consider amd run buisness apps suggest getting intel personal experiance intel suited towards high end buisness apps basics microsoft word internet printing information personal professional use suggest going amd duron intel celeron simply general lower price tags though keep mind speed important amd duron supposed amd athlon failed testing same token intel celeron supposed intel pentium too failed tests thats nasty little secret isnt personally prefer intel celeron case quite peppy duron seems little bit basics microsoft word seen ok youve made decision between gaming rig buisness machine basics something little umph need amd intel right hardest part over selection limited seems duron longer listed amd current processor expect duron machine next nothing find decided take slight hit speed keep wallet fat possible need next part celeron duron find fine hit type right bit series isnt too useful most apps take advantage bit structure expect change within year especially release next version windows windows vista long term higher performance amd go bit amd looking short fix less months stick amd athlon intel series fits best mentioned earlier need long term machine go dualcore system find important afford find afford stick intel pentium though pentium knocked intels lineup couple months ago might able last laugh getting left over pentium system fret pentium packs quite punch buisness apps section hope helps important hope havnt given mental indigestion need help let us
5243	29	133231	1516175	1502418	Keldawwg	11/4/05 7:44 AM	1.13109024E12	amd processor reliability	using amd processors years problems whatever built around computers myself family many friends never built intel box simply added cost comparable performance around years ago brother who works intel gave intel processor free every year he need upgrade his computer time ghz pentium bought asus motherboard thing along good heatsinkfan gigs ddr memory current machine using slower ddr chose asus best luck flawless performance every motherboard made processor free spared expense components long story short computer biggest piece crap ever built never many problems using ecs elitegroup computer systems motherboards got sale processors frys dirt cheap problem problem blue screen death lockups system hanging periods several minutes favorite fact evry tenth boot motherboard announce system failed due cpu overclocking go bios setup wife kids clue how deal needed restart computer way shut down wait several minutes before restarting otherwise always fail boot due cpu overclocking error high dollar solid copper heatsink best arctic silver heatsink compound asus utility monitor temperature cpu running hot according asusprobe never overclocked computer always reliability stability highest priorities need performance tend buy higher performance processor rather tweak processor run faster designed dealt year finally got pissed off nothing computer run reliably constantly trying set reliable absolutely nothing worked finally decided trash go back amd bought athlon fairly soon came asus deluxe motherboard usually spend upgrade tired messing computer computer completely bullet proof problem ever running flawlessly day day hardlock whats work ghz dell optiplex gx system amd significantly faster use sdrc ideas solidworks pro engineer ansys machines amd noticeably faster using gb rpm ultra fujitsu scsi drives adaptec controllers machines own personal hard drives machine work exactly same far storage performance reliable amd dell locked running really large simulations couple times taken work home several times finish never problem tough beat absolutely flawless reliability buy amd total confidence
5243	30	133231	1516188	1502418	Bruce1sa	11/4/05 7:48 AM	1.13109048E12	amd reliability	amd years failures built three computers over last four years use working
5243	31	133231	1516277	1502559	baddog6915	11/4/05 8:15 AM	1.1310921E12	amd intel	believe brands similar unless gamer amd fx processor chip cannot difference except gaming use amd gaming computers intel amd respectively bit over rated right programs built take advantage processor
5243	32	133231	1516297	1502418	dlauber	11/4/05 8:25 AM	1.1310927E12	amd reliable intel hp disaster	using pcs built past few years stuck exclusively amd processors thrilled ever defective probably remember several scandals defectivelydesigned intel processors essentially amd processors clean slate comes reliability defects while intel problematic years amd taken technology lead real disaster courting getting computer made hp includes compaq hp nasty tendency cut corners remove features motherboards uses computers tech support bottom barrel example friend help him update bios his hp computer followed somewhat strange instructions hps website installing bios update following their instructions corrupted cmos normally easily solved resetting jumper motherboard save few cents manufacturing hp include pins jumper clearing cmos hour talking nasty person hp tech support she finally admitted instructions hps website wrong least months wasnt tech supports responsibility corrected send friend computer month revealed hps notebooks use amd processor were being built dual channel ram disabled hp spokesmen said couldnt trust consumers who wished add ram right ram modules many folks amd processors their motherboards support dual channel ram runs faster single channel nowhere hp tell perspective customers dual channel ram disabled notebooks hp products owned worked lasted their overpriced laser printers year old laserjet unfortunately last legs darned replaced hp printer bottom line friends let friends buy hp buy gateway ibuypowercom where configure computer piece piece go asus motherboards use amd dual core cpus affordable year monarchcomputercom made locally
5243	33	133231	1516304	1502559	dlauber	11/4/05 8:28 AM	1.13109288E12	amd reliable hp	using pcs built past few years stuck exclusively amd processors thrilled ever defective probably remember several scandals defectivelydesigned intel processors essentially amd processors clean slate comes reliability defects while intel problematic years amd taken technology lead real disaster courting getting computer made hp includes compaq hp nasty tendency cut corners remove features motherboards uses computers tech support bottom barrel example friend help him update bios his hp computer followed somewhat strange instructions hps website installing bios update following their instructions corrupted cmos normally easily solved resetting jumper motherboard save few cents manufacturing hp include pins jumper clearing cmos hour talking nasty person hp tech support she finally admitted instructions hps website wrong least months wasnt tech supports responsibility corrected send friend computer month revealed hps notebooks use amd processor were being built dual channel ram disabled hp spokesmen said couldnt trust consumers who wished add ram right ram modules many folks amd processors their motherboards support dual channel ram runs faster single channel nowhere hp tell perspective customers dual channel ram disabled notebooks hp products owned worked lasted their overpriced laser printers year old laserjet unfortunately last legs darned replaced hp printer bottom line friends let friends buy hp buy gateway ibuypowercom where configure computer piece piece go asus motherboards use amd dual core cpus affordable year monarchcomputercom made locally
5243	34	133231	1516354	1515629	dlauber	11/4/05 8:47 AM	1.13109402E12	youre surprise dual channel ram	hp pavilion zv series notebook amd athlon sounds great were expecting dual channel ram amd processors support youre big disappointment hp disabled capability notebooks according spokesperson hp consumers who wish upgrade their ram capable buying ram matches crucial dual channel memory were counting feature might reconsider hp pretty good alternative gateway mx notebook widescreen amd cpu gb ram gb hard drive dvd rw drive ati radeon mobility video windows xp home downside etc best buy selling little real manual times call tech support really technical questions live person anwsered within seconds
5243	35	133231	1516361	1516277	piercedtiger	11/4/05 8:49 AM	1.13109414E12	bit software	windows xp available versions linux windows server bit version too try running bit versions debian access archives software converted over bit bit firefox exampl need look
5243	36	133231	1516389	1502418	zlorenzini	11/4/05 8:59 AM	1.13109474E12	amd totally reliable hp ok too	writing amd bit computer built myself running data conversion script past hours minutes cpu usage enough power write read email everything computer never crashed nearly year built thats reliable hp computers based amds work their intel counterparts client who bunch hp machines amd cpu held longer others needed machines built computers amd semprons year single those computers ever crashed using their corporate server go ahead buy hp assuming nice white ones recommended client cpu he completely satisfied computer salespeople say people recommend their customers build themselves
5243	37	133231	1516398	1502418	back_water_tech	11/4/05 9:01 AM	1.13109486E12	amd good hp bad	several posts stating hp puts thier reputation line refering amd processors reputation wanted save thier reputation should stayed pc market hpcompaq computers bad news work electronics store logo half hpcompaqs sold came back hardware problems amd makes wonderfull processor line pc amd worked owned pc every amd family line processor seen couple minor things usually turned hardware compatibility issue something else pc gateway builds amd machines emachines too local builder reccomend amd cost factor
5243	38	133231	1516400	1502418	hasilvalens	11/4/05 9:03 AM	1.13109498E12	amd solid	run oldie goodie athlon ghz tbird core purrin kitten thing heard grapevine amds tend heat issue fixed counter removed side panel together allow air freely recommended pc within reach kids coffee pets dust every months disappointed going amd good luck regards dave
5243	39	133231	1516429	1502418	ira176	11/4/05 9:21 AM	1.13109606E12	amd processors reliable	past experience chip sets operating systems concern stability processors intels their without problems switched amd back days due pricing currently use athlon xp served purpose todays nforce via chipsets eliminated stability issues offer great performance compaired intel systems looking athlon time upgrade past reliability
5243	40	133231	1516469	1515651	5ron5	11/4/05 9:35 AM	1.1310969E12	amd	owned amd quit time replace hard drive wa filled old thing mine reliably machine fact hear amd besides being inexpensive way go compared intel being equal amd being faster intelalso reliable going wamd far concerned best way go shouldnt disappointed
5243	41	133231	1516770	1516277	gts	11/4/05 11:16 AM	1.13110296E12	amd intel	though true os programs really take full advantage bit architecture faster bit chips hp desktop ghz ht hp notebook ghz athlon crunching video stuff faster athlon havent problems locks athlon actually runs cooler faster dell notebook intel centrino chip
5243	42	133231	1517004	1502418	MZuke	11/4/05 12:13 PM	1.13110638E12	biasedreply own amd stock	amd fine turion note own acer travelmet turion ml built laptop chip while amd watt output lap burner turion either ml watt lap warmer mt wattnice lap cool ur looking multimedia amd look acer ferreri nice darn exspensive amd great people wanting play games cpu intensive things intel good people wanting realy long batt life ur watching moves such things vid card soundcard cpu over ghz should fine matters
5243	43	133231	1517238	1516067	Voltsmith	11/4/05 1:24 PM	1.13111064E12	serious	where facts tchai thought everyone knew selling points amd their lower heat dissipation requirements btw less heat less power
5243	44	133231	1517344	1502418	abrams	11/4/05 1:59 PM	1.13111274E12	amd definitely	ve got computers run amd stabily cooler cpu stable gets sempron series cheap fast cool making great overclocker athlon great processor especially gamers beats intel around runs couple degrees cooler turion faster intel centrino athlon planning future beats intels hands down cooler faster cheaper athlon enhanced virus protection windows xp sp installed
5243	45	133231	1517672	1502418	sir jock	11/4/05 5:01 PM	1.13112366E12	amd	months ago bought absolutely complaintsnever format old regular event never problems
5243	46	133231	1517700	1502418	Yue Hong	11/4/05 5:14 PM	1.13112444E12	why give try	intel amd processor good really tell processor seems never machine amd processor before why give try amd able experience understanding amd processor good performance system low price ill suggest amd athlon amd athlon use office document online
5243	47	133231	1517976	1502418	psidd	11/4/05 7:48 PM	1.13113368E12	amd cool quiet technology trueit works	owned pcs cyrix intel celeron pentium cpus locked amd athlon yet crash although admit using tuesday bought intel pcs before decided time amd having heard amds supposed stable last year desparate pc got pentium gz before intel made number designation numerous lockupscrashes time switched couldnt believe how noisey cooling fan nearly took back wish loud flatmate could hear down hall his door closed always thought sounded loud dying chicken shortly got hp amd athlon hoping return pentium pc left too late started using amd hp thing noticed how virtually silent really cooler too major bonus addition lower cost equal performance running lower clock speed means less heat noise power consumption amd really deserves overtake intel processor war theyre winning right ever go back wintel processors ever take plunge delighted
5243	48	133231	1518136	1502418	slondi	11/4/05 10:02 PM	1.13114172E12	amd	built number computers always amd processors were less expensive provided power needed hope helps
5243	49	133231	1518145	1515651	PKsteven	11/4/05 10:22 PM	1.13114292E12	too	amd ran perfectly years niether statement matters really bit person asking lock issues something along line supposed fix something bit apps running properly lockup cpu paul
5243	50	133231	1518310	1502418	DSHornet	11/5/05 2:39 AM	1.13115834E12	nothing amd	own computers exclusively amd cpus home computer bought ran processor run halfdozen amd processors various motherboards including present athlon problems related cpu various pcs employers run intel cpus advantage using expensive intel chips
5243	51	133231	1518345	1502418	bill32405	11/5/05 3:35 AM	1.1311617E12	amd reliability	marketwatcher use selfbuilt amd xp ghz thunderbird box problem years operation fried mobo due severe thunderstorm aside system uses aforementioned tbird asus board ghz corsair ram western digital gb hd prefer use intel products next box use amd fx abit board hope helps bill
5243	52	133231	1518371	1517238	Flirkann	11/5/05 4:22 AM	1.13116452E12	where he pull	lower power consumption less heat ability use low speed fanless heatsinks less noise btw performance major point consideration brand name oem parts arent good retail often features disabled missing dual channel memory prime example
5243	53	133231	1518638	1502418	LynneM	11/5/05 7:33 AM	1.13117598E12	amd processor reliability	using amd generic maker reliable machine processor never caused problems operating system three amds started put together way back progressed athlon machine athlon xp machine runnind winxp pro causing problems operating system processor look buy amd products guess could say fan amd
5243	54	133231	1521229	1502418	memory-xpert	11/6/05 5:59 PM	1.13129994E12	buy amd	last intel processor pentium mmx nothing amd ever give enough facts figures keep yeading year suffice say amd given best bang buck many many years company actually handles wholesale distribution intel amd speaking many years experience industry remember rules buy amd intel use firefox internet explorer world place happier people
5243	55	133231	1521455	1502418	blackheart1313	11/6/05 9:53 PM	1.13131398E12	amd over intel	back few years ago owned yr old computer amd processor stepfather bought hp intel pentium ghz mhz ran apps faster stable loyal amd customer always amd ran win mb sdram asus mboard intel ran win mb sdram recommend buying either custom built amd based computer alienware falconnorthwest computer never met anyone problem either companies
5243	56	133231	1521740	1502418	garrie	11/7/05 5:52 AM	1.13134272E12	amd reliability	hi marketwatcher quick amd good chips suited microsoft bit software released soon advance micro devicesamd actually processors intel before branched own garrie
5243	57	133231	1522298	1516469	109	11/7/05 10:25 AM	1.1313591E12	amd boxed heatsink fan	april bought amd athlon their retail box heatsink fan comes year amd warranty absolutely problems worry whether picked right cooling combination go overclocking
5243	58	133231	1522325	1521740	psytropic	11/7/05 10:32 AM	1.13135952E12	actually	untrue amd made flash memory devices got degree research papers history amd
5243	59	133231	1523702	1515887	Mendieta	11/8/05 2:05 AM	1.1314155E12	he he he laugh	built several computers own computer store personally amd based computers amd amd proccessors excellent cheap reliable faster intel ones computer freeze bad memory modules underpowered power supply defective motherboard virus spyware etc etc etc supposing assure something must certain say suppose assure starting proven fact speaking dual core chips amd proccesors technologically advanced intels amd proccesors operations each clock cycle bit proccesor amd proccess double quantity information bit proccesors pentium iv laugh
5243	60	133231	1523711	1516277	Mendieta	11/8/05 2:11 AM	1.13141586E12	wrong	bit software wrong too bit software said bit software bit windows xp several linux versions bits too several bit applications
5243	61	133231	1524357	1502418	top_flight_steelers	11/8/05 9:43 AM	1.13144298E12	amd reply	speak bit amds few bit amds reliable process colors intel least dells ati mb pci express card pent processor
5243	62	133231	1524664	1516067	abrams	11/8/05 11:42 AM	1.13145012E12	late	why going ancient amd chip thlon run onne hell alot cooler allowing overclock hence being stablebefore overclock normally run couple degrees cooler intels cpu clocked higher plus amd doesnt stupid cpu slot compared intels lga need screwdriver push might therefore worrying damaging motherboard rather fitting cpu installing athlon slot cpu push down th mechanism best thing athlon best frame rates comes gaming eg athlon fx were develop bit processors therefore future proof future proof socket allows upgrade current single core dual core flashing bios eg athlon clock speed ghz per core power required intel clock speed ghz per low compasred normal due heat restrictions power required checkout latest benchmarking results online mag andyou amazed amds suffer comes encoding excel tasks especially gaming
5243	63	133231	1526233	1502418	vbhisey	11/9/05 6:58 AM	1.13151948E12	amd way	machines office amd semptrons athlons problem
5243	64	133231	1527407	1522325	wtortorici	11/9/05 3:29 PM	1.13155014E12	memory serves right	intel licensed amd intel sued amd over tech amd prevailed
5243	65	133231	1527650	1527407	psytropic	11/9/05 5:26 PM	1.13155716E12	intel tried copyright term	supreme court ruled cannot copyright number thats how pentium born distinguish intel competiters
5243	66	133231	1529245	1502418	ledzepe	11/10/05 11:27 AM	1.13162202E12	why hyped amd	techie wanna amd came their copy intels processor amd kept copying intel architecture time went court ordered intel release microcodes episode amd started developing their own architecture amds platform architecture different intels amd connect directly memory chipsets chipset direct connection memory means processor work hard passing info memory chipset vice versaaka multi io task processors direct connection memory could finish memory task faster intels way processor chipset memory direct connection memory meaning chipset channel lot info between processor memory chipsets designed job aka multi io task therefore could finish multi io faster memory caching etc engineering stand point processors good perform adverstised uses nanometer technology meaning error number molecules per area means difference between functioning product nonfunctioning enthusiast who build their own tower desktop system built might problem blame processor tower consist many different parts bought different suppliers parts generally work together different tolerances might build towers identical parts hungup while works fine same branded pcs might work fine experience problem worked worked dec where alpha true bit proc woundnt say intel sucks amd sucks never generalized marks uninformed enthusiast rather go their websites wwwintelcom wwwamdcom read processors interesting reading
5243	67	133231	1529674	1502418	Bob Brown	11/10/05 2:12 PM	1.13163192E12	amd bit processor reliability	hp amd bit processor last xmas never second trouble software except upgrading windows xp sp system restart using restart command installing last upgrade xp windows problem went away why according lable upgrade concerned keyboard drivers why look gift horse mouth system considerably faster systems friends using intel pentiums screams tickled pink bob
5243	68	133231	1536352	1502418	elmouba	11/14/05 7:39 AM	1.13195394E12	amd processor reliability	advanced micro devices made great improvements recent years student computer sciences built computer scratch using amd athlon ghz processor back great experience today pc running smoothly never experienced harware failure related linked processor itself machine test machine tried many crazy things currently using media center pc hp athlon believe happy thing bits race amd advance against intel recognized many analysts advice hezitate go ahead amd pc meantime yourself ready future upgrade windows vista enjoy
5243	69	133231	1541792	1502418	btljooz	11/16/05 1:05 PM	1.1321463E12	definitely amd over intel	never amd fry however pentium fry experience extremely unlikely ever go anything amd heck long loooooooong loooooooooooooong time
5243	70	133231	1541816	1541792	Eddiefromalienwarecomps	11/16/05 1:14 PM	1.13214684E12	amd	amd generally makes cpus tehn intel highend amd pcus defeat intel plus most amds chips bit ready while intel makes us pay bit ready chips believe their series their dual core series their series believe their dual core series last
5243	71	133231	1541852	1541816	btljooz	11/16/05 1:32 PM	1.13214792E12	agree	thats why amds computers
5243	72	133231	1542543	1541852	Eddiefromalienwarecomps	11/16/05 7:54 PM	1.13217084E12	nt nt should	NIL
5243	73	133231	1542876	1521229	apple_pie_eater	11/17/05 12:08 AM	1.13218608E12	amd vs intel	buy intel expect half vista work microsoft designs their software intel processors amd always playing catchup notice xp media center came intel chips took forever finally released computer amd chip
5243	74	133231	1543956	1542876	Eddiefromalienwarecomps	11/17/05 1:19 PM	1.13223354E12	why	most computing world intel dominated processor marketits windows apple os those days over ever amd came bit ready chip back downhill intel amd currently fastest dual core cpu amd fastest single core cpu amd athlon fx generally value chips around bit ready processor amd almost every processor amd sells intel believe series their dual core series their series believe dual core series intel ditched btx form factor design go back atx face future amd
5243	75	133231	1544085	1542876	jcrobso	11/17/05 2:20 PM	1.1322372E12	why	intel trouble over world price fixing nasty business prictices keep amd down
5243	76	133231	1561993	1502418	robertanswerman	11/25/05 5:56 PM	1.13294136E12	hardlocks	intel processors amd processors liked amd machines best old amd current amd run fine lockups ever due running windows software back days windows moved along xp few problems blue screen death tempted drop move apples mac machines until xp came must admit real problems pentiums money seem whole lot myu amds
5243	77	133231	1566122	1502418	AMDrules	11/27/05 8:24 PM	1.13312304E12	intel worthless	id rather cent movie million times replace amd intel intel pure crap hype hired advertisers developers never ever buy intel hope ceo intel reading his crappy celeron pc saying he isnt dumb enough own his worthless products he knows exactly how worthless might stick quarter under heatsink rather intel chip quarter good minutes parking wonder try sticking intel card parking meter hmmm ok intel cards worth cents
5243	78	133231	1566151	1566122	Eddiefromalienwarecomps	11/27/05 8:40 PM	1.133124E12	wouldnt watch cent movie	hate cent live borough next where he grew situation happened swtch intel move
5243	79	133231	1568745	1516354	jtjr	11/29/05 12:58 AM	1.13322588E12	mx dual channel memory	mx runs dual channel ram looking specs different sites listed gig ddr ddr assuming ddr dual channel memory
5243	80	133231	1575420	1502418	Tinkerman	12/2/05 3:23 AM	1.13349378E12	amd athalon	running amd athalon over yearit operated faultlesslyit certainly recomendation regards eric
5243	81	133231	1578079	1502728	seabee69m	12/3/05 10:40 AM	1.1336064E12	dual intel versus amd	finally feel amd given respect benchmark tests run dual processors showed exactly beleived along intel good processor over rated overpriced maybe bit balance use amd
5243	82	133231	1582094	1522325	tech_suck	12/5/05 4:45 PM	1.1338011E12	research please	amd made flash contract manufacturer intel license agreement intel wants break away platform sorry intel base huge nexgen ibm contract manufacturer nexgen too bad ibm could chip fast enough ibm could nexgen versus intel today athlon alpha intel fail stop amd accessing alpha technology major innovation amd copy cat microsoft
5243	83	133231	3171213	1515863	critofur	11/10/09 9:05 AM	1.2578439E12	never say never	re ill never pay intels price premium ha amd surely price performance leader performance champ while sometimes intel priceperformance leader once theyve won back king hill top performance spot too hope amd something works kick intel pants maybe thats wishful thinking hammer time anymore
5243	84	133231	3171644	3171213	VAPCMD	11/10/09 6:36 PM	1.25787816E12	surprised theres responsethe post	youre responding years old vapcmd
