4045	0	291151	2749425	NR	Lee Koo (ADMIN)	4/11/08 11:48 AM	1.20791448E12	poll desktop computer brand name prefer	desktop computer brand name prefer acer please explain why apple please explain why dell please explain why emachine please explain why gateway please explain why hp please explain why lenovo please explain why sony please explain why noname custom built please explain why our brands loyalties please respect each others opinions keep discussion civil thanks
4045	1	291151	2749560	2749425	Coryphaeus	4/11/08 2:42 PM	1.20792492E12	ibm	theyre built tank currently four desktops laptops three others given kids working ibm best line update service anywhere click ibm looks machine recommends updates way down bios updates problem laptop turned problem called support guy located atlanta ga he spoke english worth money how many threads started ibm problem
4045	2	291151	2749621	2749425	SirCasak	4/11/08 5:29 PM	1.20793494E12	dell preference	words tech support
4045	3	291151	2749627	2749425	snowcrashuk	4/11/08 5:45 PM	1.2079359E12	custom built	custom built last years building own pcs rather brand pcs basically works cheaper everything thats alot friends bought brand pcs varying degrees reliability performance currently running intel water cooled overclocked ghz asus stryker formula motherboard geforce gt sonic mb graphics card gb ddr ram raptor gb sata hdd gb sata hdd lightscribe dvd writer thermaltake armor case connected widescreen monitors connected plasma tv via graphics cards hdmi output running vista ultimate bit system cost alot money built step time spreading cost affordable range ending constantly evolving system knocking brand pcs personally guts computer great satisfaction doing myself experiences friends etc id probably rate dell over many rest reliability emachines probably rate worst most friends who bought nothing trouble luck customer support either
4045	4	291151	2749630	2749425	dragonbiker	4/11/08 5:48 PM	1.20793608E12	name money pocket advertise someone else	everyone likes their breakfast lunch dinner clothing music etc certain way why shouldnt our computer system made way case choices choices choices yet wife gets frustrated cereal aisle too many choices each every component system someone build choose suggested drive ram videro card how many fans drives etc done wallet crying mercy choosw case seethrough lit going carry oh stays put biggest factor expandibility system components including case going ten years old four fans upgraded gb hd wonderful flat screen monitor gone through keyboards wife goes through pantyhose anyone else despise wireless keyboards comes time start over confident using utilized far ahem uh tech support guy gal who built system component criteria their fingertips mystery gear thats sorry use our parts our components runaround need multiple systems say office app say dell temp many many many offices vast majority dell convince wife alienware really internet smoother faster cheaper place
4045	5	291151	2749646	2749621	deyanimay	4/11/08 5:55 PM	1.2079365E12	watch	subwebaddr hilarious
4045	6	291151	2749683	2749425	kiwited	4/11/08 6:30 PM	1.2079386E12	name	build own pcs number reasons pc features build cost considerably use ubuntu linux most pcs come vista xp preinstalled need desire pay royalties microsoft experience hardware problems rare most issues problems back windows days related software weaknesses problem questions quickly answered active forum running bit amd dual core processor radeon video
4045	7	291151	2749679	2749425	Gary Wyatt	4/11/08 7:02 PM	1.20794052E12	poll desktop computer brand name prefer	basic dell today michael back helm beat imho bought duo core intel ghz mb ram hd flat panel analog dual optical cd burner dvddvd integrated graphics nic xp each deliveredjust deal year warranty
4045	8	291151	2749712	2749425	queenlint1	4/11/08 7:11 PM	1.20794106E12	machine cheap shiney	researched machines eye towards reliability cost customer service reading countless reviews cnet adn seeing comparisons chose machine fit within spartan budget need far wannabe mr wizard computerese problems however customer service bragged reviews less stellar mho issues cd burner drive door oh whatever attitude seems companies consumers choice talk lee maybe discussion customer service needs airing blessings dina
4045	9	291151	2749713	2749425	gurnx	4/11/08 7:12 PM	1.20794112E12	ibmlenovo	use thinkpads owned earlier ibm thinkpads earlier poster correct theyre easiest systems upgrade system update grabs bios driver windows updates time updates tuned specific machine nonapplicable updates notebook place ground stand upon their wellwritten blog subwebaddr remind michelin tires pricey once switch never buy anything else
4045	10	291151	2749728	2749425	arnold88	4/11/08 7:18 PM	1.20794148E12	brand names	building computers people house mind buy readymade brand name personal use real breath fresh air crapshovel ware loaded brand name computers primary tech support immediately hand might deal microsoft vendor small issue intimate knowledge components software need send pc factory turn over repair service indeed questions wait hold ad infitum answer theyre mostly available online quick easy
4045	11	291151	2749736	2749425	adhi wibowo	4/11/08 7:40 PM	1.2079428E12	custom build	custom build cb profit though spec must compatible hardware computer desktop choice best hardware combine best perform quality computer actually using animation games program understand mean cb learn how installed own computer cut price computer technician computer build computer upgrade need without worrying difficult search hardware choice mark compatible finally sell hardware boring
4045	12	291151	2749755	2749425	Martinchox	4/11/08 7:49 PM	1.20794334E12	preffer personalized	hello everybody reply cnet forums interested poll preffer build own computer select cabin motherboard such hardware items sources stuff customized needs many too best thing build own computer youre doing course thanks reading martn
4045	13	291151	2749789	2749425	billy2hat	4/11/08 8:42 PM	1.20794652E12	prefered desktop computer brand name	personal preference hp design sales service over quite reliable far coz tried couple brands brand give problems
4045	14	291151	2749800	2749712	mrjeremy88	4/11/08 8:58 PM	1.20794748E12	emachinesamen	heard many people put down emachine computers before including salesman sold mine honestly bought years ago spectacular zero problems explodes yearwho cares half price dellhpetc time upgrade anyway wish made laptops id buy heartbeat next computer
4045	15	291151	2749818	2749425	Dango517	4/11/08 9:51 PM	1.20795066E12	hp	subwebaddr individuals were idiots group pretty good decisions who hummmmm those thread untracked
4045	16	291151	2749822	2749425	Eduardo, Generare Ltd.	4/11/08 10:04 PM	1.20795144E12	paying whom deserves	lets set clear point made things precious monuments hidden beautiful side human being firms their brands our money done quality reward consumers simply wonderful apple job quite quite long time love linux open source lives apple need windows too runs apple apple play bad tricks happens thousand times times personal experience never happen damage work thank mr jobs commerce wild land act wild nasty person understand support brand
4045	17	291151	2749858	2749822	kevanatkins	4/11/08 11:54 PM	1.20795804E12	NIL	couldnt agree personally choose anything thatll work use apple myself gone through too many computers time seems work best macbook surely built brick happy steve jobs design team deserve fridge fine imported beer
4045	18	291151	2749859	2749425	mmrpmitchell	4/11/08 11:55 PM	1.2079581E12	past refleft future	previously always furthermore recommended dell systems early pii ghz ghz piii being main always reliable reasonably priced looking however seems changed dell web site basically going snare buyer parting hard earned cash system components warranties etcyou seem pay through nose once expected additionally found upgrading system components through dell expensive time therfore decided try build own specification require needs worth gamble assuming trash components during build process regards paul mitchell
4045	19	291151	2749860	2749425	devcrazy	4/11/08 11:58 PM	1.20795828E12	vote hp	hp love technology always reliable least experience their socalled tech support sucks ever outsourcing india hps many years loved problem called americanbased tech supportthey always helped resolve whatever ailing pc stand talking indian most calls frustrating usually understand their english jack problems gave calling long time ago usually either resolve myself thru someone net otherwise problem hps technology said thats vote
4045	20	291151	2749844	2749425	mick2222	4/12/08 12:18 AM	1.20795948E12	custom built name	mine custom built name got builder respect his opinion he technoid sales rep he shopped around most modern hardware nothing past useby date regards mick
4045	21	291151	2749870	2749425	Violite2U	4/12/08 1:41 AM	1.20796446E12	desktop pc brand name prefer	sony around awhile always seem good quality items matter radios tvs stereos general expert using sony experience years never problems items thanks thats opinion personal use home thanks
4045	22	291151	2749897	2749425	steveflett	4/12/08 2:43 AM	1.20796818E12	put youll youll	always build own machines started although appreciate computer system manufacturers build machines suitable most everyday users work most purposes programs looking computer work customizedspecific usesprograms custom computer works best change within pc without having problems example invalidating warremty machine problems locating drivers accepted manufacturer machine subject states above idea put built machine usually youll andor youll upgrade
4045	23	291151	2749901	2749425	xegut	4/12/08 3:40 AM	1.2079716E12	fujitsu scaleo	compare old computer amitec witch half system uploaded unable download servicepack allways breaking always recovering status happy way wondering who second computer made amitec meen sotis
4045	24	291151	2749921	2749425	patsy girl	4/12/08 4:34 AM	1.20797484E12	pc desktop computers	prefer dell quality great customer service
4045	25	291151	2749922	2749901	mrskelly	4/12/08 4:38 AM	1.20797508E12	why pay something need	computer ibm tablet never leave home without far desktops go need use certain tasks need lot whistles bells television shows games software use occasion need desktop applications why pay giant corporations who arrogant stay telephone minutes go through menu menu find theyve put through wrong person tech assistance theres local guy small shop who put repairs upgrades right charge way less behemoths supporting people who hour week time give business local shop help local economy rather give money megacorporations helps everyone
4045	26	291151	2749963	2749425	jesskalinowsky	4/12/08 5:35 AM	1.2079785E12	poll desktop computer brand name prefer	packard bell clone gateway prior hp hp lightyears knock wood little issues getting year ago got third party vendor work giant mistake got screwed bad kissed computer literate hire people things computer miw nightmare avoid plague major overpriced real morons techies managed hp almost way except email configuration way soon email accounts sans working way work shopping laptop go hp dell acer guess great advice appreciated
4045	27	291151	2749975	2749425	RickB81	4/12/08 6:09 AM	1.20798054E12	asus	asus good stats decent performance good price
4045	28	291151	2750015	2749425	chchristmas	4/12/08 6:55 AM	1.2079833E12	gateway	bought gateway computer time last year replace part cost love trade computer update without paying money love without wires add everything go
4045	29	291151	2750016	2749425	Riskman	4/12/08 6:59 AM	1.20798354E12	build own	before buy dell hp premade machine ask yourself whos hard drive machine whos video card machine whos ram power supply wattage whos whos motherboard machine upgradablity machine find answers happy parts quality manufacturers good ratings doubtful buy machine dell hp whoever answer build own yes cost few bucks yes customer support buy most customer support centers dissapoint anyway guess area really paying need rather prepaying build own built tell exactly manufacaturer part go machine long run end machine opinion
4045	30	291151	2750023	2749789	Josepe-sv	4/12/08 7:25 AM	1.2079851E12	yeah hp run great	hp machines friendly restore cds waranty amd hp machines support ok dell easy back winxp delloem cd xp installed instead vista without activation believe too ask downgrade cons dell towerdesktop models ugly design support ok emachines nice good style price time never needed support
4045	31	291151	2750006	2749425	jdrosier	4/12/08 7:28 AM	1.20798528E12	custom built	building own economical pleasureable components brand named parts recomended need upgrade board video sound ram tendancy brand name computers include trial software partial program runs days faced prospect having buy full program considerable cost bundled software deal whitch play togetherwant own virus protection spyware tools buy system dell take hard rid use tiger direct quality products price yet disapointed products advice got helpfull staff easier might build own currently third generation amd system built going strong jr
4045	32	291151	2750027	2749425	john55440	4/12/08 7:35 AM	1.2079857E12	hp never repairproblem	hp pavilion desktop computer problem free never required single repair never problem kind hp technical support goodbad never needed previous computer highend dell desktop deadunrepairable three years addition found dell consumer technical support completely clueless guess dell technical support person brain business customer
4045	33	291151	2750045	2749425	BobLap	4/12/08 8:12 AM	1.20798792E12	acer	bought three machines over last years happy chose were relatively cheap machine got pleasantly surprised turned great machines said own three machines problems quality build easy upgrade quiet last desktop bought silent couldnt tell off
4045	34	291151	2750068	2749425	w_longmore	4/12/08 8:32 AM	1.20798912E12	name comp	built own settings setup change things suit head trying contact manufacturers etc
4045	35	291151	2750101	2749425	mwooge	4/12/08 9:17 AM	1.20799182E12	brand name	cnet should included button simply name brand own preference might hp thats isnt causing problems actually most namebrand computer probably good
4045	36	291151	2750108	2749425	CTJoyce	4/12/08 9:32 AM	1.20799272E12	custom built	desktop absolutely choice hand building most instances cheaper mention putting exactly system bulkware bloatware overclock change components case room expand without worrying voiding warranty unless absolutely positively fathom building own system something where once once never buy oem cheers cameron
4045	37	291151	2750121	2749425	9braines	4/12/08 10:12 AM	1.20799512E12	favor lenovo hp compaq close second	public corporate professional privilege working most everything break down experience pcs basics comes back maintenance support computer designed longterm customer support retention built brand build loyalty base always exceptions people given pc purchase most cost effective time good experience become loyal brand best experience ibm thinkpads aptivas product lines lenovo same great minds built before joined great minds lenovo synergy team acheived apparent newest product line models acquired model last months best everits th either owned assigned thinkpad computer came early otherwise hp really high list close nd mostly same reasons ps own selfbuilt generic server running win server child never fall love
4045	38	291151	2750154	2749425	zunefan1	4/12/08 10:52 AM	1.20799752E12	prefer dell	dell computers sony computers most ecoconscious computers regard toxic chemicals ie greenpeaces electronic report dell precision laptop extremely solid contains aluminum steel thick rubber bottom dropped backpack onto sidewalk strike zone technology kicked lose data booted websites working word documents utilizing popped keyboard extremely solid mushy apple computer keys plan consider dell xps notebookthe industrial design exquisite alienwares magnesium alloy cased laptopalso made dell
4045	39	291151	2750169	2750045	swamprat	4/12/08 11:15 AM	1.2079989E12	acer	bought retired ok net till modem failed video card failed early diamond card added upgrade acer yo zero issues satisfied thus far good performance reasonable price
4045	40	291151	2750183	2749425	leodoucette	4/12/08 11:20 AM	1.2079992E12	brand name prefered	using acer products many many years experienced few problemsalso wife myself lap tops acers problems
4045	41	291151	2750174	2749425	JonathanPDX	4/12/08 11:37 AM	1.20800022E12	nonei prefer custom built pc	users who little experience computers brandname system usually best components relatively cheap easily replaced definte benefit novice user someone who simply doesnt worry their computer however control components installed systems expect
4045	42	291151	2750215	2749425	Boothbay	4/12/08 12:30 PM	1.2080034E12	abs computer	time looking desktop give option adding periphials such hard drives previous pcs wanted keep utilize backup etcplus fact were excellent shape tried brand names most give option adding hard drivesdont forget before usb external hds hdsplus dvd desktop going strong
4045	43	291151	2750241	2749425	k1eyvan	4/12/08 12:34 PM	1.20800364E12	go custom build	working bustbuy recently technician inside most brands acer hp recommand non strongly recoomand custom build least
4045	44	291151	2750283	2749425	Merl Priester	4/12/08 1:27 PM	1.20800682E12	recommendation reasons	dell right number ordering dell xp boxes right until last week bought around jan vostro pc line inexpensive overall works real xp cd something gateway last bought were core duo most were pentium dual core standard office work pdc works fine looking play games intensive photo work video encoding higher end unit required users basic unit fine were ordered min hd gig ram dvd rw widescreen xp pro prices vary day day price usually around including tax wo pro their standard tech support greatest maybe light years ahead hpcompaq gold tech support outstanding before acer purchase gone gateway nd idea their build quality hpcompaq ok never liked restore disk method having several restores customers options format format might limited side repair recovery console available didnt burn yours begin hard drive fails paying set hp waiting few days lenovoibm bought customer decent specs were happy could ran substantially slower others slower cpu never buy emachine although cheap side sold several far years passed none died less expensive tech support bad time called got rep utah he helpful spoke english knew he doing sony worked few didnt care crap sony tagged couldnt remove without screwing something built lot pcs myself myself others approx novice own pcs run faster usually smoothly anything off shelf being said point most likely weigh benefits custom pc dell add anything might dell expensive adding extras such nd drive ram realize everyone bought basic unit nothing else raise price go broke priced hardware dell hp almost always dell less expensive dell
4045	45	291151	2750353	2749425	tehahn1	4/12/08 4:12 PM	1.20801672E12	own brand	exactly whats decifer probelms arise quickly add upgrade delete besidesi hate washing someone else car laundry lol
4045	46	291151	2750399	2749425	alliyse	4/12/08 5:02 PM	1.20801972E12	dell	portable body
4045	47	291151	2750467	2749425	apallot	4/12/08 6:33 PM	1.20802518E12	desktop comp brand name prefer	australia yr old computer number upgrades inc hard disks gigoriginal gig poetable handle adsl custom built grtek compsliverpool sydney bells whistles yet worked really need inc tv goes great flamming fast use avg anti virus etc great probably never use stuff
4045	48	291151	2750672	2749425	Rocketmen2k5	4/13/08 5:55 AM	1.2080661E12	stay away	bought cyberpower pc could pretty looking without going through hassle building own pc came excellent shape ran expected fly soup their tech support via telephone email suck big time own system month hardware failures per say real problem came update bios asus oc program work bios upgrade caused card reader stop working trying support via phonewhich could recording call backthey never didand via email gave fixed own reloading win xp essentially own
4045	49	291151	2750722	2749425	ESUNintel	4/13/08 9:02 AM	1.20807732E12	prefer custom built	nothing custom built pc build yourself hire someone way exactly type components being learned lesson really trust computer manufactures whole lot use cheapest parts find most theyre tech support nightmare really buy desktop go apple ad run vista really tech support amazing second choice hp dell buy business division cause each support horrible try stay xps line loved vaios sony saw future continuing build desktops need laptop trust apple sony sony best tech support waiting times usually under minutes doing speak perfect english treat people dummies never pc unless thats case anyways conclusion custom computer companies powerpc build apples mac pro mini those need intense graphics cpu ram youll happy
4045	50	291151	2750728	2749425	Dr. Sparky	4/13/08 9:30 AM	1.208079E12	noname way	dell theyve lost confidence too many bs deals going amd their ubuntu systems cost windows dellca same rest world open source taking over anything pay pretty free why pay office suite security music video players burners web browsing were choose brand maybe shuttle novice try their kpc dell top list long itll continue overcharge build own next time components choosing theirs their prices look years
4045	51	291151	2750777	2749425	Patrick1959	4/13/08 10:14 AM	1.20808164E12	desktop computer brand name prefer	prefer build own afford everything desktop buy dell upgrade later memorygraphics prices within budget never problem dells laptop desktopthat fix myself havent yet laptop year old desktop years
4045	52	291151	2750906	2749425	w1kate	4/13/08 2:28 PM	1.20809688E12	either gateway name	gateway almost years were right support high priced time nonmae actually vostro dell made way upgrade
4045	53	291151	2750942	2749425	welrdelr	4/13/08 3:10 PM	1.2080994E12	preference name	concerned architecture os performance silly nitpicking name
4045	54	291151	2750953	2749425	Norm.Smith	4/13/08 3:29 PM	1.20810054E12	pcs	chose becaause interpret choices being built prefer build own qualified thats conceit really constantly upgrading meet current needs others most folk deal anticipate their future needs comers often rmail thing write letters associate pc users isnt long before their pc really designed oftem experience unnecessary frustration trying really problem especially cheaper brand names harder upgrade without major parts replacement lets face cheap reason good hope helps someone aviod pitfall norm smith
4045	55	291151	2750961	2749630	[xiong.chiamiov]	4/13/08 3:51 PM	1.20810186E12	re name money pocket advertise someone el	eww dellienware overpriced flashy computers say
4045	56	291151	2750964	2749683	[xiong.chiamiov]	4/13/08 3:54 PM	1.20810204E12	re noname	amen brother built pc hadnt switched kubuntu yet buy xp cd part reason built vista having recently taken over highquality parts appreciate time example air filters pop off clean rather opening case blow dust though must say chose ati card intentionally use linux theyve bought amd theyre actually making drivers nvidia support way
4045	57	291151	2751217	2749425	TimRoy	4/14/08 5:29 AM	1.20815094E12	dell	work computer typing dell ghz shut off running constantly years without failure home computer dell ghz runs constantly years
4045	58	291151	2751205	2749425	cherryhill23	4/14/08 6:10 AM	1.2081534E12	prefer dell far	our second dell computer ran last ground unbelievable deal past fall deciding factor though really tech supporthands down sold us
4045	59	291151	2751230	2749425	zclayton2	4/14/08 6:27 AM	1.20815442E12	name diy	put capabiltites use load oem past crapware preinstalled latest linux ubuntu loaded vista laptop sucks xp available
4045	60	291151	2751405	2749425	TwoPynts	4/14/08 9:59 AM	1.20816714E12	apple	macs plain simple cost little rarely problem ones owned imac macmini
4045	61	291151	2751536	2749425	Ctxpal	4/14/08 2:36 PM	1.20818376E12	acer	main reason why prefer acer tech support staff american components best ex keyboard need help always easily understand
4045	62	291151	2751949	2749425	slymcbee	4/15/08 7:05 AM	1.2082431E12	name brand thumbs down	prefer custom builds durable parts most name brands incorporate descent parts cheap parts believe good power supply processor hard drive good quality compatable memory motherboard key lasting system worked lot name brands same parts dell uses different parts processor memory hard drive best parts motherboard power supply weak withstand power outage surges buyer bewarename brands reasonable weak power supplys kill motherboard
4045	63	291151	2753293	2749425	GlynColin	4/17/08 5:18 AM	1.20840948E12	alienware	certainly recommend alienware pc paid th feb year
4045	64	291151	2754726	2749425	loovulkats	4/19/08 3:24 AM	1.20857544E12	hp	computer owned purchased goodwill entirely hp old slow already years old performed champ customer service leaves something desired native americans equipment made last
4045	65	291151	2754856	2749425	drekhawk387	4/19/08 7:19 AM	1.20858954E12	apple sony	recent being recent last ear mac convert love way works simplicity sony laptops last count time were small looked nice alternate colors blue ac adapters were interchangeable between models use pc mainly games
4045	66	291151	2754890	2749621	dbmrn	4/19/08 7:57 AM	1.20859182E12	dell their tech support	dell made good computers brag their tech support currently acersa desktop laptop problems either prior gateway computers tech support needed either either guess those brands made dell sorry guy
4045	67	291151	2754921	2749425	thecomputershop	4/19/08 8:16 AM	1.20859296E12	same	owner computer repair shop asked many times week best brand buy response always samebuy neighbors old computer computers come our shop made same third world junk called seconds parts same white sticker partss board brand name computer being sold aware computers made country shops ours tell people look throwaway camera best advice keep unplugged electric telephone use doubt ever anyone come toasted motherboard power supply didnt tell surge protector seems boobie trapped go little powewr surge
4045	68	291151	2754929	2749425	MarkA1964	4/19/08 8:31 AM	1.20859386E12	compac dell	compaq laptops purchased costco years old collage kids years old before never gave us single problem dell laptops dell desk top dell laptops keyboard replaced bummer mail done rest dells trouble free reason choose compaq over dell seem higher quality same price
4045	69	291151	2754947	2751536	thecomputershop	4/19/08 8:34 AM	1.20859404E12	acer american	acer korean company recently aquired gateway gateway aquired emachineso none made country offices
4045	70	291151	2755008	2749560	FastEddi	4/19/08 10:00 AM	1.2085992E12	ibm lenovo	ibm boxes refer lenovo chinas best kept secret referring older ibm machines prior sale agree everything say older laptops work never problem plus tracking device middle keyboard fasteddi
4045	71	291151	2755015	2749425	FastEddi	4/19/08 10:08 AM	1.20859968E12	power spec winbooks	were purchase box microcenters powerspec winbook issue winbook their parts strategy send repair powerspecs typically weak failing power supply
4045	72	291151	2755110	2749425	rruss	4/19/08 12:06 PM	1.20860676E12	generic pcs	frankly idea being able cherry pick componentry select hd personal preference maxtor samsung video card preference ati despite being kicked around lately motherboards various asus prominent absolutely favor via chipsets most especially cpus amd early ram power supply installation number capacity fans front rear etc come end until prefer own selections over those others who best interests heart lol
4045	73	291151	2755988	2749425	The ancient one	4/20/08 7:47 PM	1.20872082E12	custom built	prefer custom built pro though built myself compaq emachine custom built easier upgrade changes os software less buggy
4045	74	291151	2756143	2749425	senol01	4/21/08 5:25 AM	1.2087555E12	good	cool news thanks thanks subwebaddr subwebaddr
4045	75	291151	2757531	2749425	satish_997	4/23/08 9:39 AM	1.20894354E12	dell	good machines friendly tech support
4045	76	291151	2757937	2749425	Dave Bray	4/24/08 1:17 AM	1.20899982E12	favourute computer	computer program crashes pleased tp sy most reliable advent regards dave bray
4045	77	291151	2758383	2749425	Jeanne321	4/24/08 3:33 PM	1.20905118E12	dell never	last computers were dell desktops generally pleased starting read their laptop lines saw dellmanufactured antivirus software recommended somewhere online ordered never came called ninety minutes six people later begun resolve problem asked cancel order refund money said go back beginning long initial customer service wait point decided wasnt worth time spending gave thus losing money hope ever receiving product id bought computer needed tech support never buy dell hardware software hope their management monitors techie chat rooms how many us similar complaints
4045	78	291151	2758955	2754890	chipclada	4/25/08 12:02 PM	1.20912492E12	acer	good thing acer hasnt given problems bought mine last month bad sound card order repair mail entire computer depot take business days repair using priority mail live us virgin islands without computer month way run business never buy acer consequently recommend acer anyone else were problems too preinstalled software frankly found acer nightmare unless live same town depot
4045	79	291151	2765129	2749425	ElectricalBanana	5/4/08 1:45 AM	1.2098655E12	custom built	bought computer long time ago peice junk decided build every computer owned various reasons already mentioned thread pimarily knowledge abilty always build suits needs nowprimarily gamer started buildingengineering computers back
4045	80	291151	2765483	2749425	DerfX	5/4/08 1:34 PM	1.20990804E12	toshiba	personally prefer build own desktops far laptops go great luck toshibas stuff wife should tester laptops she find weak point system whether software hardware she goes through laptops change underwear suits fine her handmedowns simple repairs most often great little machine shes testing hp holding pretty except barely year old shes already talking her last gift toshiba stick hard drive she let sit turned overnight sofa blanket covering vents repeatedly until cooked hard drive amazing how where place vents how long last didnt toshiba list thought stick
4045	81	291151	2765923	2765483	patsy girl	5/5/08 7:57 AM	1.20997422E12	dell computer xps	xps dell computer completely satisfied second dell build own satisfied
4045	82	291151	2791627	2749425	susanhk	6/12/08 12:17 PM	1.21327302E12	mecer	happy using last eight years susanhk
4045	83	291151	2805119	2749425	beatem	7/4/08 4:54 AM	1.21514724E12	dell	good counselling good support got perfectly need special keyboard preinstalled software perfectly working peripherals buy
4045	84	291151	2805786	2749425	repete_smile	7/5/08 9:53 AM	1.21525158E12	custom	pcs custom built myself local pc builder why custom made annoying preloaded free trial software
4045	85	291151	2806253	2805786	Spinreiner	7/6/08 8:47 AM	1.21533402E12	dell	dell desktop laptop love tech support awesome lightening got desktop relying laptop nowwith problem close second hp hps lasted years before needing upgrades toshiba dead last everybody nothing problems
4045	86	291151	2814591	2805119	techwiz3335	7/18/08 8:19 PM	1.21641234E12	gateway	gateway years xp
4045	87	291151	2814594	2814591	techwiz3335	7/18/08 8:20 PM	1.2164124E12	dell	dell inspiron
4045	88	291151	2815876	2749425	white-bread	7/20/08 10:42 PM	1.21659372E12	brand	basically whatever hands affordable
4045	89	291151	2932630	2758383	evden eve nakliyat	12/20/08 5:16 PM	1.22979336E12	re seeting login time	thanks lta href subwebaddr title evden eve nakliyat gtevden eve nakliyatltagt lta href subwebaddr title evden eve nakliyat gtevden eve nakliyatltagt lta href subwebaddr title evden eve nakliyat gtevden eve nakliyatltagt please go
4045	90	291151	3108989	2749975	UndulatingAcrobat	8/22/09 8:00 AM	1.250928E12	buy asus shanelle randisi robert diaz liars	shanelle randisi robert diaz asus employees who warranty essentio desktop honor told entitled replacement sent beat refurbished units sane disc drive defects brand could fix refuse give warranty states called consumer affairs bbb shanelle lied avoid honoring warranty randisi refers customer who wants he entitled pain she said email company actually forced apologize unprofessional dishonest worthless never
4045	91	291151	3114415	2749425	jancawa55	8/29/09 5:44 AM	1.25152464E12	systemax works	bought current computer end got upgrade vista until started win rc need motherboard replaced totally freemy audio connector died problems soon th os installed take care reformat reason yet pc stats top nearly yr old job keeps ticking
4045	92	291151	3297255	3108989	joeren67	5/2/10 12:20 PM	1.2728028E12	confirmed buy asus robert diaz crook	message response sent undulatingacrobat reply asus rickb confirm robert diaz liar crook asus produces junk sold supported properly retailer manufacturer refused refund though admit sold supported item incorrectly
4045	93	291151	5004470	2749425	matt9329	10/7/10 6:53 PM	1.28647758E12	custom built way	custom built computer soooo highly reccomend experience doing building own computer options choosing performance machine such speed look hardware components atleast way putting system going cheap knockoff part company installed mention programs crappy antiviruses norton always put machines crap way add own trusted software ps youre doing learn
4045	94	291151	5014520	2749425	jmccrohan	10/26/10 11:29 AM	1.28809254E12	got gateway laptop bday	said got gateway nv most desktops average computer far guts impressed great looking machine survived year old stepping issues screams got few goodies too gb gb ram amd athlon ii dualcore processor ghz mb cache ddr mhz wi ghz smaller processor absolutely tell machine gateway customer life
4045	95	291151	5243723	3108989	trVthlover	12/9/11 8:08 PM	1.32346128E12	afraid	woman shantelle return phone calls looking start asus lemon page over facebook people share their experiences company come looking under page name asus lemon page
4045	96	291151	5243778	2749425	michaelhowells009	12/10/11 4:20 AM	1.3234908E12	hp	good experienced hp technology using hp pc found technologies drivers easy fine while laptop ill prefer dell thanks
4045	97	291151	5274123	2750121	9braines	2/14/12 5:12 PM	1.32923952E12	revising post	post personally experience decline product quality seen sharp decline quality products support hp although disappointing seen sharp increase quality products support market share apple products while highly recommend regard lenovo thinkpad products equally convinced apple macbook pro far superior product most every platform today honest buy computer tomorrow torn between latest thinkpad macbook pro removed ms windows vista business thinkpad favor linux ubuntu
4045	98	291151	5504112	2814591	check54	10/2/13 9:45 AM	1.3807071E12	thank	happy using last eight years susanhk thank subwebaddr subwebaddr
4045	99	291151	5504109	2814591	check54	10/2/13 9:46 AM	1.38070716E12	problems	happy using last eight years susanhk thank subwebaddr subwebaddr
4045	100	291151	5504312	2749425	James Denison	10/3/13 1:48 AM	1.38076488E12	noname custom built please explain why	heart system motherboard processor everything else support custom built cost less depending wants virtual custom build looking best prices day low power linux system cost parts case psu cpu motherboard gb ram dvdrw gb hard drive oem white label type looked lowest priced dealer comparable build closer price id expected included windows system wanted custom build came ahead quality due special corsair psu rebates cheap inexpensive computers matters off department store shelf major manufacturer order kit bundle parts assemble yourself price quality comparable people bundle crapware comes along too thats case looking quality beat custom build price getting exactly case added benefit wont look most people most buy computers off shelf anyone really icky black dell optiplex looking case today case really date look system gigabyte asus motherboards solid capacitors match cpu superior cooling solution power supply units corsair antec thermaltake meet requirements continuous power supply based lying max value rating ram crucial kingston hyperx add exactly keyboard mouse instead paying ones replace add software installed extra software advertisements limited time offers trial period software ad nauseum stuff spend time trying strip major brand computers industry standard items greater chances upgrades having addons video cards tv capture cards fitting motherboard case dimensions weird shaped motherboards reverse cases odd power units supplied seller permanently attached heatsinks embedded processors floppy drive cost long nobody uses anymore daughter cards provide sideways slots space adding cards already cramped space way completely satisfied therefore build yourself
4045	101	291151	5505826	2749425	bizadpros	10/7/13 10:25 PM	1.3811847E12	custom built	past years custom built desktop computers unless find desktop bloated resource heavy addons off building own basic computer peripherals really need subwebaddr
