10477	0	62739	744233	NR	germansal	2/6/05 6:30 AM	1.1076714E12	hp pavilion tft monitor blackout	using monitor over year problem turn puter windows xp logo comes sec screen goes black sec turn monitor off desktop appears sec goes black tryed monitor computers updated drivers same problemcan anybody help monitor year warranty thanks
10477	1	62739	765899	744233	dereszd	2/15/05 10:39 AM	1.10846394E12	same problem hp monitor blackout	right year warranty ran hp pavilion monitor same thing problems monitor beginning months before warranty ran back hp said software problem say hardware problem gonna pay buy monitor aint right best regards don deresz
10477	2	62739	777407	765899	dmuller67	2/19/05 8:28 PM	1.10884488E12	hp blackout too	same thing happened right around christmas fortunately month left warranty hp replaced monitor charge guess got lucky time
10477	3	62739	992241	744233	stheis	2/24/05 5:17 AM	1.10922222E12	hp pavilion tft monitor blackout	glad found forum lengthy session hp phone support last night assured record owners black screen problem three monitor replacements august problem waiting th arrive could screen stay couple seconds desperation tried pushed power button monitor pushed back screen appear seconds click menus long could through series onoff able control panel system hardware devices deleted monitor pushed power button computer restart computer far worked anyone finds really causing problem please post
10477	4	62739	1002592	992241	monica75	2/27/05 12:30 PM	1.1095074E12	monitor blackout	got same problemits software email hp sent morning problem thank contacting hp total care gather form mail pavilion monitor displays blue hp logo goes black issue same connected computers issue might occur hardware malfunction monitor apologize inconvenience causing understand such problem upsetting please assured assist resolving issue primary importance us monika happy process request replacement monitor issue might due hardware malfunction monitor options replacement monitor option assist obtaining replacement monitor however following process involved obtaining replacement monitor shipping empty mailin box address provided need send defective monitor back hp mailin box sent receive defective monitor ship replacement monitor need contact replace monitor free subwebaddr
10477	5	62739	1004526	1002592	ant7629	2/28/05 8:59 AM	1.10958114E12	monitor blackouts	hi warranty valid happened mine too ran weeks before problem occured spoke hp basically said nothing could paid monitor believe happened
10477	6	62739	1010173	992241	stheis	3/2/05 9:17 AM	1.10975502E12	replacement monitor same prolem	fortunately computer under warrenty fourth monitor came computer display red next blackout problem third replacement blackout problem received monitor monday today blackout started hp quick send replacement monitor many users problem wonder reconditioning blackout monitors sending replacements anyone where monitors manufacturered certain range serial numbers same problem anyone how tell replacement monitors reconditioned anyone tried hooking different monitor
10477	7	62739	1010233	992241	John46947	3/2/05 9:38 AM	1.10975628E12	pushing pins	those problems id myself before could figure however ill take stab offer couple things try working guess itll back described might try doing visual inspection pin holes video card once pin break off matter monitor plugged acted flakey lots hair pulling finally found broken pin dawned monitors plugged socket probably were damaged obstructed pin hole checked found indeed pushed pin each tried lukily able pull back place pair needlenose pliars without damaging their opperability sort physical damage cord pins monitor going sleep suspend mode next thing try brand hook buddies monitor happens having bad luck hp products personally ever good luck hp printers serviced few pavillion computers hp different computer regards monitors work fact might wise look different brand monitor should decide replace together
10477	8	62739	1010297	1010233	John46947	3/2/05 10:09 AM	1.10975814E12	thing	something else might check while monitor working screen refresh rate find right clicking anywhere desktop click propertiessettingsadvancedadapter monitors protect themselves shut down their refresh rate set correctly reason incorrect refresh rate settings actually damage monitor many digital monitors allow adjust refresh rates their menu screens without firing computer try pressing monitors menu button look refresh rate settings
10477	9	62739	1017064	1010297	snut	3/4/05 6:23 PM	1.10996058E12	monitor refresh rate	same problem everyone else john good refresh rate mine set
10477	10	62739	1017262	1017064	John46947	3/4/05 8:43 PM	1.10996898E12	refreshing	refresh rate number times displays image repainted refreshed per second refresh rate expressed hertz refresh rate means image refreshed times second refresh rate each display depends video card change refresh rate display properties however change refresh rate setting display video card cannot support display goes blank image becomes distorted wise consult display video card manuals before changing settings determine supported refresh rates older refresh rate standard developed video electronics standards association vesa local bus hz refresh rate caused displays image flicker causing eye fatigue headaches users standard set refresh rate hz believed hz higher eliminates flicker purchasing monitor look refresh rate hz
10477	11	62739	1017950	1017262	snut	3/5/05 6:06 AM	1.11000276E12	re refresh rate	thanks info
10477	12	62739	1028783	1017950	snut	3/9/05 8:07 AM	1.11035562E12	possible fix hp flat panel blackout problem	tried different things seems work way blacking looked going screensaver mode checked screensaver setting set come minutes thats hours amount time happen changed minutes hasnt blacked shut monitor computer off night never minutes hope helps someone ps always shut monitor off using computer unsuspended mode having dsl
10477	13	62739	1030917	1028783	John46947	3/9/05 8:50 PM	1.1104014E12	screen saver power options	could set screen saver none produce exact same effect wonder though screen saver uses black screen perhaps meant power options control panel although monitor feature control panel goes high hours before blanking screen never setting power options youd rather use minor addendum whole screen saver business lcd monitor lcds use backlight rated work certain number hours before failing always good turn off lcd monitor needed conserve rather extend life backlight auto power off function set pretty low mins ensure right using
10477	14	62739	1031409	1030917	snut	3/10/05 4:57 AM	1.11043062E12	screensaverpower options	definitely control paneldisplayscreensaver tab section changed minutes guess neccessarily black screensaver although mine set mostly black night snow scene maybe malfunction screensaver feature
10477	15	62739	1036563	744233	ameenaskar	3/11/05 9:28 PM	1.11057648E12	hi please help	same monitor same price unfortentlly same problem please find way solve problem tell message edited admin remove email address
10477	16	62739	1039192	1036563	germansal	3/13/05 3:51 AM	1.11068586E12	support our troops	found internet subwebaddr read wont feel bad
10477	17	62739	1051757	992241	DollyDollyB	3/17/05 5:59 PM	1.11108234E12	page	finally got replacementthis keeps flickering off white lines across screen going return back screen says nov didnt buy computer until april woman india wouldnt let speak supervisor said she wouldnt ship replacement unless tried test told her she told how test black screeni gladly try said she sending daylie call week later ask againfinally got thisalso bad bad newsgtgthp
10477	18	62739	1051968	744233	majidk	3/17/05 9:58 PM	1.11109668E12	hp pavilion problem	dry joints circuit board inside monitor
10477	19	62739	1054422	744233	llih	3/18/05 3:50 PM	1.111161E12	too	purchased hp pc costco last july monitor worked fine till month ago flickers goes black power light stays blue times turn off work fine days times go within seconds while writing went off times leaving purchase monitor costco says return whole pc else replacement monitor hp eventually return whole pc need monitor work long enough remove files scrub hd before returning wont buy hp product purchased liked amd processor
10477	20	62739	1054711	1054422	DollyDollyB	3/18/05 6:22 PM	1.11117012E12	hp monitor blacks	purchased mine costco last april replacement flicks white lines blue screen almost every day monitor periodically blacked permanently love return entire package compmonitor going buy delldude previous pc compaqthree yrs purchasemotherboard died check back monitormine dated nov hp told warrantyuntil showed proof purchase
10477	21	62739	1054718	1051968	DollyDollyB	3/18/05 6:24 PM	1.11117024E12	blacked monitor dry joints	please tell us how check how figure thanks dolly
10477	22	62739	1057043	1054711	llih	3/19/05 6:15 PM	1.1112561E12	ordered	acer replace hp went costco were inch return hp gateway heck cheaper hp year warranty
10477	23	62739	1063810	744233	gromit588	3/22/05 3:18 PM	1.11150468E12	possible cause found	tft months ges whats happened yes blacked extensive expensive calls hp helpdesk discover year hp nothing took things own hands proceed follow instructions year warranty ready trash tft tools youl need smallmedium philips star screwdriver small flat head screwdriver knive remove electrical connections tft using flat head screwdriver remove blue plugs above silver stand bracket rear screen remove brass screws screen stand should seperated using flat head screwdriver gently prize silver facia away blue body tft outer edge best place start bottom corner screen near menu select buttons hear cracking crack good snap bad silver facia removed screws front screen hold screen body remove screws carefully turn screen face down aluminum looking heat shield using knife cut threw metal seal remove locking nuts blue pin connector remove screws each side heat shield gently push heat shield towards bottom screen reassemble monitor using steps seems touch wood solved problem
10477	24	62739	1067853	1063810	jgmacv	3/24/05 9:16 AM	1.11165576E12	blackout	many others monitor started blacking couple months while able back repeatedly turning off monitors power button work fine week tried refresh rates trouble shooting finally hp technical support yesterday said monitor needed replaced mine ran warranty isnt way goes montitor wasnt replace wouldnt bother going try own fix forum useful gives different things try anyone figure why blackout issue happening mine manufactured nov comforting having problem ill post luck
10477	25	62739	1075760	765899	dereszd	3/27/05 8:31 AM	1.11191226E12	hp monitor blackout update	tested faulty hp pavilion monitor computer black too hp wanted charge lots hundred dollar bills purchase reconditionedoops theyre making ones reasons unknownmonitor found sundays paper office depot coupon microtek brand compatible monitor year warranty lived heavenlyeverafterexcept hp should pay back bucks bs buy their technical support phooey aint ever buyin hp product againand technical purchasing worksite too thatll hit em where hurts bottom line
10477	26	62739	1080872	1067853	snut	3/29/05 8:37 AM	1.11208542E12	removing screensaver work anyone	curious how many others worked problem march three weeks ago within few days tried setting screensaver none havent problem knock wood friend mine seems conflict between windows screensaver andor power options monitor settings shutting screensaver completely off eliminate conflict
10477	27	62739	1092427	744233	beck000	4/1/05 8:50 PM	1.1123886E12	hp pavillion monitor blackout	glad found site thought problem unique monitor bought computer monitor sams club started having blackouts computer working few minutes power button front monitor blink twice monitor go off nothing turn back unless unplgged power cord monitor cable shut down whole system doesnt come called hp tech support mid march tech rude condescending he asked plugged explained turned off while working he didnt problem told him downloaded ms service pack he told problem needed contact ms promptly hung found service pack nothing called hp back told warranty expired days previous allowed speak tech could purchase extended warranty today emailed ceo hp told him he lost business anyone else could discourage buying their product wont matter him least wonder how many others who bought theirs sams club costco warehouse club having same problem
10477	28	62739	1096921	1092427	bear4	4/3/05 8:26 PM	1.11255996E12	blackout	blacksout seconds find wiring circuit test circuit boards needs replaced display year days old hp helpdesk help
10477	29	62739	1098589	1096921	germansal	4/4/05 1:49 PM	1.11262254E12	days too late	days past warrenty sucks
10477	30	62739	1119404	1098589	beck000	4/12/05 3:57 PM	1.11332142E12	days	agree stopped working together called hp tech center while under warranty told never heard problem before reading many boards obviously true
10477	31	62739	1119467	744233	Silent Killer01	4/12/05 4:13 PM	1.11332238E12	got fix black screen problem	got hp pavilion days dec made nov radeon pro mb vidoe card put playing games unknoe time world start blibk black screen couldnt figure why pressed ctrl alt delete went processs clicked image name saw ati evxxexe system hpadministrator end tasked hp stoped blinking play games turned off game seems choppy hope help need fix were wont full power video card wont choppy
10477	32	62739	1129968	744233	germansal	4/16/05 8:46 AM	1.11364116E12	got broken	back long story tried calling hp states stationed germany bought base got royal run aroundso week calling called hp germany thats where live said year old under warrenty month oldthey said days fixwell months later finally monitor back same hp statesor really india telephonei really bad service hp companies bad good old land united states shame hp
10477	33	62739	1130382	744233	dansir	4/16/05 12:09 PM	1.11365334E12	hp monitor blackout	problem hp monitor screen going black through hp tech support tried resetting refresh rate booting safe mode sent monitor hp replacement monitor taking forever work through problem support agent spoke little english told today problem power adapter sending adapter today problem sounds defective adapter hp selling
10477	34	62739	1130441	1092427	dansir	4/16/05 12:34 PM	1.11365484E12	hp monitor blackout	received replacement monitors luck vow never buy hp product email name ceo benefit him hear us pissed off hp monitor users who use damn things told powere adapter bad sending replacement stalling until warranty runs soon name dan email dan msncom
10477	35	62739	1130448	1129968	dansir	4/16/05 12:38 PM	1.11365508E12	hp monitor blackout	give number hp germany really given runaround too going third replacement monitor telling problem powere adapter cord sending adapter stalling until warranty runs email dan msncomthanx
10477	36	62739	1131487	1130448	germansal	4/16/05 10:58 PM	1.11369228E12	try calling different country	try calling canada hp country near link subwebaddr
10477	37	62739	1132759	1057043	llih	4/17/05 3:47 PM	1.11375282E12	got	acer great went back costco were gateways hp different monitor hpvs same problems oreder dell return hp
10477	38	62739	1135968	744233	SALEANA	4/18/05 9:00 PM	1.113858E12	hp pavilion monitor	same problem sent monitor best buy geeks call fix itthey sent back told go manufacturer luck please find someone fix problem
10477	39	62739	1135973	1051968	SALEANA	4/18/05 9:02 PM	1.11385812E12	black hp pavilion monitor	way fix problem please let
10477	40	62739	1140567	1063810	rmustelier	4/20/05 2:01 PM	1.11400566E12	solved problem	lcd working cooling problem please explainwhat moving heat shield towards bottom bought prepared future buy lime
10477	41	62739	1140858	1135973	rmustelier	4/20/05 4:02 PM	1.11401292E12	help	go their web site look next happenned monica doing soi gues valid under year warranty thank contacting hp total care gather form mail pavilion monitor displays blue hp logo goes black issue same connected computers issue might occur hardware malfunction monitor apologize inconvenience causing understand such problem upsetting please assured assist resolving issue primary importance us monika happy process request replacement monitor issue might due hardware malfunction monitor options replacement monitor option assist obtaining replacement monitor however following process involved obtaining replacement monitor shipping empty mailin box address provided need send defective monitor back hp mailin box sent receive defective monitor ship replacement monitor need contact replace monitor free subwebaddr
10477	42	62739	1141587	1135973	rmustelier	4/21/05 2:56 AM	1.11405216E12	take look	take look monica review under warranty try deleting driver monitor firstvideo adapter second safe mode hold key booting restart system good luck
10477	43	62739	1145220	1135973	GY	4/22/05 12:09 PM	1.11417174E12	hp pavilion monitor blackout	month old hp lcd color displaymonitor died went black seems should class action lawsuit complete refund model definitely major problem shame hp right serial cnchtop manufactured november purchased feb
10477	44	62739	1145254	1145220	GY	4/22/05 12:23 PM	1.11417258E12	hp pavilion monitor blackout	forgot add monitor same problem computers supply cable drivers power supply monitors major defect
10477	45	62739	1146402	1063810	rmustelier	4/22/05 8:37 PM	1.11420222E12	hp calling grommit calling grommit heeeelp	sorry repeating grommit yor hp working fixed mayor brand pcs changing cooler andor fan seem designers sometimes short original grommit message tft months ges whats happened yes blacked extensive expensive calls hp helpdesk discover year hp nothing took things own hands proceed follow instructions year warranty ready trash tft tools youl need smallmedium philips star screwdriver small flat head screwdriver knive remove electrical connections tft using flat head screwdriver remove blue plugs above silver stand bracket rear screen remove brass screws screen stand should seperated using flat head screwdriver gently prize silver facia away blue body tft outer edge best place start bottom corner screen near menu select buttons hear cracking crack good snap bad silver facia removed screws front screen hold screen body remove screws carefully turn screen face down aluminum looking heat shield using knife cut threw metal seal remove locking nuts blue pin connector remove screws each side heat shield gently push heat shield towards bottom screen reassemble monitor using steps seems touch wood solved problem posted gromit posted pm
10477	46	62739	1146790	1145254	rmustelier	4/23/05 3:48 AM	1.11422808E12	right	yes lets find possible solution trying contact gromit he postered insteresting painfull fix problably saving space designers ingeneers got short cooling mostly occurs equipments work while happening
10477	47	62739	1149171	1145254	beachhague	4/24/05 5:53 AM	1.11432198E12	blackout	warranty ran march computer started black april th madder hades problem called hp speaking different people got where none heard problem monitor told google many people having problem anyone figured something worked pay hp money technician tell nothing done
10477	48	62739	1149193	1039192	beachhague	4/24/05 6:12 AM	1.11432312E12	tell everyone problem	monitor november emailing information friends bad service receiving hp everyone needs blackout usually happens warranty help hp time call lawyer real shame our troops getting type service american company
10477	49	62739	1153928	1092427	ob-wan	4/26/05 6:41 AM	1.11449766E12	good thing didnt call support	doing favor someone who bought systems came monitors sams club thought id check few forums before called tech support guy who owns called gave him receipt help line going go sams club through theyre walmart associate maybe their customer servicegeared business strategy allow headway read postings thread ill update whenif something comes efforts
10477	50	62739	1154973	992241	helpsudan	4/26/05 1:19 PM	1.11452154E12	monitor blackout	sorry idea whats causing problem offer sympathy same thing happened month old
10477	51	62739	1156033	1130382	goaliesdad	4/26/05 8:16 PM	1.11454656E12	power adapter	please let adapter fixed problem senting mine back order wont month half hate wait long find fix please let
10477	52	62739	1158407	744233	drhalter841	4/28/05 5:53 AM	1.11466758E12	hp blackout dim	five days before warranty runs hp luckily purchased extended warranty circuitcity monitor seems having same problem described above powering down back able screen fifteen seconds blacks however dim representation screen same problem everyone else having anyone suggestions thanks
10477	53	62739	1162458	1092427	marie hunt	4/30/05 4:32 AM	1.11483552E12	hp response	recently problem using hp projector accessed great online chat through wwwhpcom live interactive bit msn operator correctly diagnosed problem talked through putting right pc years old she didnt ask warranty anything free service worked perfectly problem caused setting pc adjusted really hps fault suggest try service excellent
10477	54	62739	1162867	1158407	bucaramanga	4/30/05 9:58 AM	1.11485508E12	hp blackout	monitor dimmed emailed hp under hp website contact us send message ceo guy name dave guess he handles complaints responded asked call him he asked serial model proof purchase everything said done he said he couldnt anything warranty he said he checked records didnt find records customers reporting same problems guess everybody emails him keeps copy email maybe could help long run
10477	55	62739	1170252	1162867	germansal	5/4/05 1:46 PM	1.11521436E12	email	hey bucaramanga send dave link forum maybe he wake smell coffee
10477	56	62739	1170830	1170252	dthomasix	5/4/05 8:46 PM	1.11523956E12	hp black	stumbled accross solution reading posts tried power supply gateway model pa ac input ac hz dc output monitor minutes leave until tomorrow let happens sucks hp doing hope works ll bet power supply similar specs work
10477	57	62739	1170943	1170252	dthomasix	5/4/05 11:12 PM	1.11524832E12	solution	over hours working heres original post stumbled accross solution reading posts tried power supply gateway model pa ac input ac hz dc output monitor minutes leave until tomorrow let happens sucks hp doing hope works ll bet power supply similar specs work
10477	58	62739	1171501	1170943	germansal	5/5/05 8:46 AM	1.11528276E12	power supply	hi sent monitor back hp fix sent monitor power supply send monitorthe hp major problem hp refuses say read forum find how many people got screwed year warrenty faulty monitor should recall monitor shame hp
10477	59	62739	1171515	1171501	dthomasix	5/5/05 8:51 AM	1.11528306E12	power supply	keep informed status monitor hours problems read forum tried solutions worked
10477	60	62739	1172609	1158407	TxBearCub	5/5/05 9:57 PM	1.11533022E12	mine dim	murphy hits months yr warrenty same problem everyone else sec off luckily bought ext warr bestbuy wait geeksquad comes he said backlight failing ill post repair info current back instead replacement
10477	61	62739	1173185	1172609	dthomasix	5/6/05 6:45 AM	1.1153619E12	working	monitor working earlier post solution
10477	62	62739	1177158	744233	ScrewHP	5/8/05 11:40 AM	1.1155524E12	hp planned monitor black outs	prided myself flat screen year ago yeah hp pavilion ten days past warranty before figured adapter monitor black author live line fit hp customer care tried everything sell extended warranty law states product schould work reasonable legnth time days cut buddy options believe duty sue small claims easier go buy hope same model return junker box ta ta plan switch over dell period staff dell problemo seeing far same situation going hp once monitor works
10477	63	62739	1177166	765899	ScrewHP	5/8/05 11:44 AM	1.11555264E12	year ensures black monitor	prided myself flat screen year ago yeah hp pavilion ten days past warranty before figured adapter monitor black author live line fit hp customer care tried everything sell extended warranty law states product schould work reasonable legnth time days cut buddy options believe duty sue small claims easier go buy hope same model return junker box ta ta plan switch over dell period staff dell problemo seeing far same situation going hp once monitor works
10477	64	62739	1177251	1177158	ScrewHP	5/8/05 12:54 PM	1.11555684E12	kick box itit turns author above right	why bother conversation pakistan punched back monitor few goods times turned figured hecknothing worse already broken lasted whole five minutes best five minutes week leads believe theory writer above sorry grab name who said pc guy possible cause found tft months ges whats happened yes blacked extensive expensive calls hp helpdesk discover year hp nothing took things own hands proceed follow instructions year warranty ready trash tft tools youl need smallmedium philips star screwdriver small flat head screwdriver knive remove electrical connections tft using flat head screwdriver remove blue plugs above silver stand bracket rear screen remove brass screws screen stand should seperated using flat head screwdriver gently prize silver facia away blue body tft outer edge best place start bottom corner screen near menu select buttons hear cracking crack good snap bad silver facia removed screws front screen hold screen body remove screws carefully turn screen face down aluminum looking heat shield using knife cut threw metal seal remove locking nuts blue pin connector remove screws each side heat shield gently push heat shield towards bottom screen reassemble monitor using steps seems touch wood solved problem going print instructions hand pc repair guybut dell girl
10477	65	62739	1178314	1177251	dthomasix	5/9/05 7:04 AM	1.11562224E12	solution	posted solution earlier monitor working fine days alternate power supply
10477	66	62739	1180946	1063810	elizabethm	5/10/05 4:14 PM	1.11574164E12	mines fixed working	thank gromit nd day removed shield tft working assemble ikea furniture everyone please try verify theory case things
10477	67	62739	1183227	1171515	elizabethm	5/11/05 3:07 PM	1.11582402E12	working	hello dthomasix yours working removing shield mine ok days hours went blank yours ok ill try gateway power supply hps power unit rated dc gateway mentioned maybe needs extra valtage
10477	68	62739	1183529	744233	dalosa	5/11/05 6:21 PM	1.11583566E12	monitor blackout too	express how frustrated right course monitor over year old seems kind funny how problem started warranty expired currently using monitor monitor stay second spent yesterday today wtheir online supportdownloading files st said software issue downloading file solve mins ago tello sorry help further warranty take service center scream asked customer relations he said he couldnt find complete waste money
10477	69	62739	1183538	1183529	dalosa	5/11/05 6:25 PM	1.1158359E12	doesnt happen laptop	infoi tried different power source cords etc hooked laptop runs windows ran fine laptop
10477	70	62739	1183816	744233	elizabethm	5/11/05 10:35 PM	1.1158509E12	mail hp executives	everyone click url below copy ie tell hp executives subwebaddr
10477	71	62739	1183823	1130382	elizabethm	5/11/05 10:47 PM	1.11585162E12	power supply fixed	please tell us power supply fixed blackout
10477	72	62739	1183831	1180946	elizabethm	5/11/05 10:54 PM	1.11585204E12	down	sorry folks mine gave days hours never buy hp
10477	73	62739	1184861	1177166	lbrock	5/12/05 1:56 PM	1.11590616E12	months ensures black monitor	accidently ran accross peripherals forum today while searching repair shop guess pursue repair join everyone being dissatisfied hp please add list knew should stuck dell laptop years old going strong kind regards lynda
10477	74	62739	1185347	1149193	lbrock	5/12/05 7:05 PM	1.1159247E12	lawyer needed	anyone contacted lawyer please count lynda brock
10477	75	62739	1185480	1183227	dthomasix	5/12/05 9:15 PM	1.1159325E12	working	yes monitor working fine power supply definately problem put old power supply back test went black seconds
10477	76	62739	1186579	744233	lbrock	5/13/05 9:46 AM	1.11597756E12	same problem	add list hp blackout months old forget hp buy dell
10477	77	62739	1188455	1185480	cman86	5/14/05 10:30 AM	1.1160666E12	changed power supply problems	getting black screen months usage replaced powersupply general purpose radio shack meets requirements came monitor far hours problems post couple days statusfaulty powersupply seems culprit
10477	78	62739	1188780	1188455	genealogyaddict	5/14/05 1:49 PM	1.11607854E12	hp blackoutaaarrrgghhhh	purchased our monitor months ago manufactured june go power supply option luck completely kill thing tried fixing heat shield option wondering dthomasixs monitor working replacing power supply days
10477	79	62739	1189503	1188780	dthomasix	5/14/05 11:34 PM	1.11611364E12	working	monitor working put sleep minutes comes right back move mouse
10477	80	62739	1190559	1186579	fx3000	5/15/05 4:48 PM	1.11617568E12	yet sucker hp	having blackout problems warranty ended searching hp problems finding forum shocked reading thought hp known great support apparently thought wrong agree person said earlier post hp selling product known defective should kind relief customers warranty hp going leave us hanging too finished hp products try contact myself help writeup own website chronicling problems try contact sites engadgetcom gizmodocom review report news technology products spread word
10477	81	62739	1191929	1172609	TxBearCub	5/16/05 2:20 PM	1.1162532E12	follow geeksquad	bestbuy junked unit due parts being available couldnt answer wrong replaced lg model hp
10477	82	62739	1192872	744233	jrichar9	5/17/05 6:21 AM	1.11631086E12	power adapter culprit	power adapter monitor faulty hp sending week monitor fine power adapter failing send power back light monitor
10477	83	62739	1196436	1192872	elizabethm	5/18/05 3:12 PM	1.11642912E12	need help	agree power supply connected toshiba power supply dc back light stayed frustrated pressed lots buttons ie menu select power together monitor kind zombie mode wont display picture nor signal message anyone how back normal mode please post instruction email
10477	84	62739	1196995	744233	larrycnb	5/18/05 8:01 PM	1.11644646E12	victim	hi folks plugged different monitor problem past week got working fiddling bit until next step search google came thread sham us most recently expired warranty doubt hp knows how long things last until break anyone expired warranty luck too believe problem lies within power unit backlight being lit buy compatable unit say radioshack
10477	85	62739	1197013	1140567	larrycnb	5/18/05 8:15 PM	1.1164473E12	nt nt short yes	NIL
10477	86	62739	1198495	1196995	bucaramanga	5/19/05 3:42 PM	1.11651732E12	fix through hp	seems hp alert monitors meaning replace warranty expireddont call email complaint regarding problem call backsince alert monitor hp send home
10477	87	62739	1198870	1189503	tra1969	5/19/05 7:47 PM	1.11653202E12	work	read articals small test turned monitor sec tapped power modual screen went black right away turned off back tapped power box got same results being courious open box look setup same way amp car amp truck same problem few months ago powere going small square circut attached long aluminum plate tightened screw repaced cover works great found past heat cause soider loosen tightening screw twist enough conection hold quick fix jam going buy found hp web site probly last year monitor good luck thanks help tra ps emailed hp execs complaining problem buuuuut didnt tell fixed
10477	88	62739	1203737	1198495	lbrock	5/22/05 4:53 PM	1.11678078E12	response hp fix replace	hmmmmthis interesting discussed length hp told replace monitor under warranty please advised customer service reprentative hp following response hp ceo keep mind already three support message hp support before found website responded hp board directors said were aware blackout issue could replace monitor suggested check cnet website become aware issue support person said acknowledge their hp website their website show such complaints monitor ended discussion go back dell stand behind their product four year old dell laptop never given trouble work large company purchase pcs regular basis couple months ago dell alerted their customers faulty power adaptor their laptops were immediately replaced sad hp acknowledge issue bucaramanga please advise where learned hp going replace warrranty expired contact hp once where received information keep mind discussed issue hp responded curioushas hp change heart
10477	89	62739	1203946	744233	CamperWY2	5/22/05 7:55 PM	1.1167917E12	mine under warranty replaced cause	cause problem tech support said lamp starting fail lamp life must pretty short case months old sometimes turn mointor back screen suddenly got little brighter stay awhile got little dimmer go black seconds
10477	90	62739	1203979	1203946	elizabethm	5/22/05 8:23 PM	1.11679338E12	hp engineer brain	hi camperwy linsten those brainless hp mob their manual said life backlight hours kept months doesnt blackout itll hours bother angrier everytime spent over last weeks finally leant replace power supply hp laptop seems good thatll let keep going never buy hp crap
10477	91	62739	1203990	1203737	elizabethm	5/22/05 8:32 PM	1.11679392E12	ostrich ceo	hello lbrock bother ceo sent email weeks ago asked cnet forum havent bother reply tech support got auto replay thank contact within business day several weeks ago their business day must long never work right swith dell working before dell replace power supply toshiba laptop kind playing games nonstop during weekend ok
10477	92	62739	1204464	744233	lbrock	5/23/05 7:18 AM	1.11683268E12	message hp recall	please find attached message recallof dear lynda thank contacting hp total care email seek confirmation recalling monitors afraid however hp recalling monitors moreover mention issue could occur depending usage monitor suggest touch our local asp monitor checked physically please follow steps listed below assistance locating local hp authorized support provider go following web site subwebaddr take find us local hp authorized service provider page category menu select appropriate hp product selecting appropriate category list hp products family box select family product located selecting family product list products under product list select product list under product section click next follow instructions service options page stores located repeat search using zip code within local area pleasant day sincerely ami hp total care our advice strictly limited questions asked based information provided us hp assume responsibility liability advice given shall liable direct indirect special incidental consequential damages connection use information always back data information including technical information updates please visit our web site subwebaddr original message follows whom concern understand hp recalling blackout problems please confirm told nothing could monitor warranty michelle case kind regards lynda brock kis special projectssupport specialistit support kyocera industrial ceramics corporation industrial park road mountain home nc phone cell fax email lyndabrockkyoceracom message contains information privileged confidential unless addressee named above specifically authorized receive messages addressee named above use copy disclose message information contained message received message error please advise sender reply email lyndabrockkyoceracom delete message thank original message hp pavilion ceo email support mailtohpdceosupportenmailsupporthpcom sent friday brock lynda subject re feedback blockedreferrer kmm km hi thank contacting hp total care personally following email heard our last communication issue resolved please reply information requested previous email nice day sincerely roysh hp total care our advice strictly limited questions asked based information provided us hp assume responsibility liability advice given shall liable direct indirect special incidental consequential damages connection use information always back data information including technical information updates please visit our web site subwebaddr previous reply follows dear lynda thank contacting hp total care understand email hp pavilion monitor coming gather light monitor flashes second goes off tested monitor computers concluded issue monitor adapter greatly appreciate forwarded concerns given chance assist matter gtfrom email seems issue monitor therefore narrow downs domain issue please follow steps given below run monitor selftest test monitor separately computer turn off monitor computer disconnect video signal data cable computer verify monitor power press hold power button approximately seconds selftest screen appears monitor functioning correctly connect monitor different power outlet recommend connect monitor alone without computer power outlet check display screen displayed fine monitor goes off time indicates issue monitor request provide us following information verify warranty monitor replace monitor required monitor information monitor model number ex monitor serial number ex us monitor purchase date shipping information name organization mailing address po boxes apartmentbuildingmailstop city stateprovince zippostal code country phone number including area code please visit following web site locate model number serial number monitor subwebaddr dlcendocnamec note clicking link give error indicating invalid occurs copy portion address remaining lines paste end address showing browser until complete address displayed address box please back us requested information continue sincerely aria hp total care our advice strictly limited questions asked based information provided us hp assume responsibility liability advice given shall liable direct indirect special incidental consequential damages connection use information always back data information including technical information updates please visit our web site subwebaddr original message follows message rerouted hpcom email router message sent error please send back router mailbox hpcom rerouter per hp email directory rcid aaccsox original message follows feedback message customer using corporate feedback webmaster link hpcom name lynda brock email address lyndabrockkyoceracom phone time stamp gmt country us url problem blockedreferrer category email support issue issue support found comments hp pavilion lcd monitor bought monitor come turn off monitor flash split second tested towers working fine replaced monitor could adaptor defective adpc bb sn bh spare monitor need find problem help purchased hp set best buy asheville nc
10477	93	62739	1205454	744233	tra1969	5/23/05 6:31 PM	1.11687306E12	power supply fix	yours power supply simple way fix unplug power supply watch green light untill goes completely using small screwdriver pry power supply box open seem corner ther small square chippower regulator screw above screwed long piece alumiumn heat sink bottom chip three spades running circut board need loosen screw retighen put cover back use little tape hold togther try heating cooling power pack cause power regulator build film inbetween chip heatsink cause power regulator fluxuate screen go black way test before tear power pack start monitor tap power supply box screen should go black right away wont take sec normailly fixed mine going buy soon work great
10477	94	62739	1206774	1205454	elizabethm	5/24/05 3:10 PM	1.1169474E12	cheers tra dthomasix boo hp	tra thanks detailing cause how fix mine working days ill keep toshiba ps handy case dthomasix thanks telling us power supply culprit continuously reporting status monitor big boo hp ill never buy anything
10477	95	62739	1210901	1205454	Theworm	5/27/05 2:28 AM	1.11716088E12	same problems zealand	opened power box loosened tightened screw holding bit aluminium heat sink unfortunately fix problem appear white film between bit heat sink should try scrape clean film off reassemble
10477	96	62739	1210910	1210901	jonah jones	5/27/05 2:47 AM	1.11716202E12	white film thermal paste	improve transfer heat
10477	97	62739	1211870	1203979	CamperWY2	5/27/05 12:40 PM	1.1171976E12	replaced monitor working	hp sent monitor power supply speakers cables switched monitor three days seems ok care keep replacing monitor keeps going long under warranty thought might help people changing power supply having problems
10477	98	62739	1213004	1205454	Theworm	5/28/05 12:57 AM	1.11724182E12	monitor off power speakers	part hp pavilion set speakers powered amp feed back monitor monitor same black problems everyone else built speaker amplifier works anyone elses speakers work assuming same set mine their bad power packs blanked their screens power speakers could problem monitor could sufficient current speakers monitor shuts down sensitive voltage fluctuations volts down power pack different transformer perhaps different parts tra fix adjusting screw heat sink hasnt worked suggestions
10477	99	62739	1213137	1203737	Old Ernie	5/28/05 4:27 AM	1.11725442E12	hp replaced monitor months warrenty uk	friend uk same blackout issue everyone else took couple weeks phone calls hp retailer cometgt eventually managed hp agree replace monitor free charge told signifcant evidence worldwide problems unit merchantable quality fit purpose intended certainly quality product hp should claim proud hp replaced screen power adapter speakers works fine old power unit old screen started blackouts before year warrenty report hp happened twice always came back ok stayed warrenty expired happened frequently until reached second stay duration useless surprisingly hp th call told worry though warrenty send replacement hard believe weeks later looks brand works fine although day number call uk spoke paulo hope might help anyone else who suffering hp refusing look their customers lucky hp problem good luck
10477	100	62739	1214243	744233	Lewong	5/28/05 7:29 PM	1.11730854E12	hp pavilion tft monitor blackout fix	found thread having same problem monitor repaired monitor using gromit disassembly instructions little closer inspection soldering iron description few photos subwebaddr
10477	101	62739	1214936	1214243	wffarrell	5/29/05 8:56 AM	1.11735696E12	yes works	good news found bad solder joints backlight board were pins coils could heat problem thats cracking joints looking magnifying glass could definite crack around pin through solder solder sucker remove old stuff resoldered joints delicate operation tracks close iron fine tip gauge solder finally plugged monitor test screen came stayed bad news sorta bad yesterday afternoon spending nearly day researching problem trying solutions recommended gave went down compusa bought viewsonic spare who knows happen next kudos many thanks lewong
10477	102	62739	1215404	1214243	elizabethm	5/29/05 4:26 PM	1.11738396E12	ur excellent	thanks lewong mine fixed replacing power supply over week working disassemblingassembling few times didnt check soldering ill keep info case typical hp response told serious problem hp should look cnet forums never buy hp ps noticed pavilion comes compac monitor dear xxxxx apologize delayed response continuation previous correspondence regarding black screen issue monitor xxxxx share warranty monitor valid pc need provide pc details let case proceed further alternatively directly connect nearest hp service center further hardware assistance service engineer please call below mentioned phone number locate address nearest hp service center standard working hours monday friday ex public holidays pm reason being divert above phone number unavailability service center addresses list us deeply regret once such inconveniences above phone line might little busy while call kindly bear us expect kind cooperation until connect our online representative looking forward reply information thank nice day yours sincerely ardis raymond regional customer contact center
10477	103	62739	1220590	765899	kenzoman	6/1/05 9:21 PM	1.11766086E12	easy fix	dismantle monitor easy job take power inverter board resolder four coils board resolder properly take clean their pins solder back reassemble monitor work fine
10477	104	62739	1220605	1215404	kenzoman	6/1/05 9:31 PM	1.11766146E12	read	monitor actually pretty good unfortunatelly having backlight problem good news easy fix resoldering four coils terminals powerinverter board fix monitor powering down itself great job take coils clean terminals knife solder back doing good quality solder job never problem
10477	105	62739	1221059	992241	skruffylooking	6/2/05 7:54 AM	1.11769884E12	deleting driver temporary fix	stheisthe fix deleting driver odd reason fixes monitor days blackout returns vengence nothing help updating deleting device drivers oddbecause truly hardware problem why deleting driver fix our monitors temporarily unless were lucky mr coincidence happened stop darkest hour
10477	106	62739	1221071	1149193	skruffylooking	6/2/05 8:01 AM	1.11769926E12	american company	call company who outsources decent jobs india godknowswhereia american company could calling tech support america where calls notibly cheaper maybe bucks instead bucks hour could talk somebody who speaks fluent english our level way our calls wouldnt taken could repeat question such thats thought
10477	107	62739	1222268	1185347	harle	6/2/05 10:15 PM	1.1177505E12	law suite too	same problem monitor too upset issue too house fire months ago lost everything thing owned computor got replace lost crap try back things lost lasts month yep months past warranty doesnt work guess their products last warranty name list too please contact harlebabelvtridehotmailcom buy product really bad product last longer months let law suite go court myself harle
10477	108	62739	1222277	1010297	harle	6/2/05 10:34 PM	1.11775164E12	use refresh menue	black problem keep turning monitor off picture flash seconds once menur come picture goes off lose menue time click anything menue harle
10477	109	62739	1222291	1092427	harle	6/2/05 10:45 PM	1.1177523E12	bought mine sams club too	yep where bought mine too bought whole computor form sams wonder put rebuilt monitor instead monitor harle
10477	110	62739	1222867	1221071	harle	6/3/05 8:17 AM	1.11778662E12	ameriacan company	went through talking someone speak good english myself call dome going demand talk american thats way going thats harle
10477	111	62739	1222884	1221059	harle	6/3/05 8:22 AM	1.11778692E12	fix	mine started going hybornation could come back computors back date restore fine month computor under warranty worked long enough let warranty run sucked harle
10477	112	62739	1224047	1135973	Pete Herrington	6/3/05 7:03 PM	1.11782538E12	problem fixed hp pavilion monitor blacks	yes works fix posted wffarrell led problem thanks carefully disassembled front panel rear housing push toward center screen back housing release front fascia panel must remove several screws pull display gain access heatrf shield removal forget remove screws video connector housing remove five screws outboard connectors backlight board remove board carefully solder suspect connections particularly associated coils reassemble test mine worked pete
10477	113	62739	1224120	1205454	tra1969	6/3/05 7:43 PM	1.11782778E12	going	problems being experianced mine working great last post power fluxuation cause monitor go black way back turn off back led fix
10477	114	62739	1228547	1220605	genealogyaddict	6/6/05 4:44 PM	1.11807624E12	best buy exchange	putting off buying power supply sundayjune husband said hed enough unplugged monitor drove best buy where wed purchased demanded something he convincing hes mad morning june guy best buy called said he able duplicate problem said could exchange old monitor months oldfor brought home brand sony monitor evening
10477	115	62739	1228991	1228547	elizabethm	6/6/05 10:18 PM	1.11809628E12	where us lawyer	good ya never buy hp thought us land lawyers where guys please someone take class action against hp could easily find hundred people through forums case keep money hit back hp somehow
10477	116	62739	1235203	744233	fx3000	6/10/05 7:46 AM	1.11838956E12	re year ensures black monitor hp	contacted hp got copout theyve giving everyone else respect hp taken total turn worse class action lawsuit should really started considering methods getting hps attention below copy useless correspondence hello customer thank writing back although service provided means technical support our customers appreciate feedback our companys products services email message sent reviewed forwarded proper individuals value comments however monitor outofwarranty unable replace service offer our sincere apologie same further questions please reply message happy help receive email survey regarding email support experience appreciate feedback please visit our owner services web site details keeping hp compaq products running subwebaddr sincerely kabeer hp total care vanessa thank reply though warranty barely many people problem hp should right thing offer recourse help problem said contact significant evidence worldwide problems result hp selling product merchantable quality hp aware hp were something right strengthen integrity hp continue believe hp brand trust future hp going cop leave everyone monitor hanging losing many customers furthermore writeup own weblog chronicling problems obstacles others running try contact sites engadgetcom amazoncom cnetcom gizmodocom consumer reports review report news technology products further spread word respectfully asking please provide remedy problem id continue hp products great products buy help someone hp management might able sincerely customer dear customer thank contacting hp total care reviewing email understand hp pavilion monitor blacking monitor couple months warranty wish monitor replaced understand concern regard sincerely regret tell monitor warranty able replace sincerely apologize inconvenience caused understand how frustrated must feeling place too felt same however hope understand our limitation regard our tools permit us ship replace parts pc monitor warranty feel free write back us case further concerns happy assist further sincerely vanessa hp total care dear hp contact related hp monitor could find path contact hp chose hp monitor having problems monitor blackouting problem fixed monitor couple months warranty problem addressed hp reason making request signifcant evidence worldwide problems result believe unit merchantable quality bought thousands pf people discussing over internet please let how hp fix problem having monitor
10477	117	62739	1237384	1228991	lbrock	6/11/05 8:11 AM	1.11847746E12	count potential lawsuit hp	please count potential lawsuit defective pavilion monitor brock
10477	118	62739	1238996	1214243	Danakavm	6/12/05 8:36 AM	1.11856536E12	hp pavilion tft monior blackout fix	hi having blackout problem many others monitor warranty buy monitor until exhausted repair possibilities while solution seems worked feel qualified open computer myself might worse anyone steer right direction take local repair shop comp usa eic least post detailed instructions how went fixing blackout problem computer idiot need specific details included materialstools needed
10477	119	62739	1239019	1192872	Danakavm	6/12/05 8:51 AM	1.11856626E12	power adapter scaprgoat	same problem hp sent power adapter tada monitor blacked
10477	120	62739	1243551	1183816	ptfarre2005	6/14/05 4:03 PM	1.11876498E12	gave snailmail address	thanks tip url own call hps nearlyuseless technical support resulted unpublished snailmail address could write po box boise idaho wouldnt provide confidential email address pressed case hard worth address complaint letters hewlett packard corp po box ms boise id note ms probably stands mailstop obviously case inferior manufacturing run large nay arrogant company doesnt seem care doubt answer costly replacing their junk free many thanks gents who posted technical solutions involving coils backlight inverter board looks option hp should hurt surrender classaction lawsuit could win simply wrong way youre reader sorry inform yet hundreds thousands victims edsel flatpanel monitors lets hope something good happens
10477	121	62739	1244395	1235203	Theworm	6/15/05 2:53 AM	1.11880398E12	zealand break through	hi number attempts complete references chat line others below postings links photos offending circuit board got hp zealand take back warrantee monitor free repair dropped off receptionist their repair contractor said oh same mine mine stopped working last week months old told her tell her technicians check solder joints back light circuit board repaired monitor back working fine
10477	122	62739	1246502	744233	roosty	6/16/05 5:11 AM	1.11889866E12	hewlett packard unsympathetic	same problem tft month warranty period expired last month got exactly same screen blackout defect however net find fix real truth unlikely problem backlight though expect hewlett packard come clean too pleased charge replacement ccrt course forget mention manufacturing defect culprit dry solder joints inverter board precise four coils circuit board need resolder someone experienced adept soldering iron monitor working fork pile cash hewlett packard who refuse recognise manufacturing defect outside their warranty period impressed hp who should recall models free repair regardless warranty status excuse shoddy workmanship purchasing hp product result their attitude
10477	123	62739	1246910	1246502	millerd6	6/16/05 10:06 AM	1.11891636E12	hp pavilion tft monitor	likewise warranty trouble started months ownership thanks shared discussion ideas took apart found coil needed resoldered back working finefor who knows how long sent message hp board directors likely ignored problemjust add list dell users
10477	124	62739	1247087	1054422	maldoman	6/16/05 11:43 AM	1.11892218E12	class action investigation hp pavilion monitor	paralegal girard gibbs de bartolomeo llp san francisco consumer class action law firm currently investigating complaints concerning blackouts hewlett packard pavilion lcd monitor assist us our investigation contact via email armgirardgibbscom phone web wwwgirardgibbscom blackouthtml thank adam
10477	125	62739	1247205	1145254	Cmahon	6/16/05 12:30 PM	1.118925E12	monitor blanking	add list month failure times mine blanks second redisplay same amount time resolution change cable disconnectreconnect power offon called hp told warranty could talk tech suspecting hardware problem decided go looking answers elsewhere number people reporting similar problems hp obviously manufacturing design defect should dealing problem shame hp too boycott hp products recommend others same until issue addressed
10477	126	62739	1247238	1247205	Cmahon	6/16/05 12:52 PM	1.11892632E12	monitor blanking	oh yeah mine manufactured november quality control issue around time
10477	127	62739	1247301	1080872	Cmahon	6/16/05 1:23 PM	1.11892818E12	change screensaver	reset screen saver off monitor off power settings never difference
10477	128	62739	1247421	744233	maldoman	6/16/05 2:47 PM	1.11893322E12	class action investigation hp pavilion monitor	paralegal girard gibbs de bartolomeo llp san francisco consumer class action law firm currently investigating complaints concerning blackouts hewlett packard pavilion lcd monitor assist us our investigation contact via email armgirardgibbscom phone web wwwgirardgibbscom blackouthtml thank adam
10477	129	62739	1250093	1092427	harle	6/17/05 10:22 PM	1.11904692E12	try talking sams monitor	bought computor sams mine went few days warranty too month fussed hp called sams talked where going replace monitor stock managaer called head office told manager call hp sams talked retail hp got contact sent refurbished least got something done hope lasts month warranty belive going keep eye months thing happens going call maybe call sams talk where really great could ask people where talking could hp something where going swap whole computor give try bought mine march warranty ran april pam
10477	130	62739	1255647	1214243	litesmile2	6/21/05 1:42 PM	1.11936132E12	hp pavilion tft monitor blackout fix	part sold fix problem blackout
10477	131	62739	1255771	1255647	elizabethm	6/21/05 2:45 PM	1.1193651E12	fix forget law suit	lewongs post subwebaddr photos forget register adam wwwgirardgibbscom blackouthtml
10477	132	62739	1259555	777407	recrit20	6/23/05 12:38 PM	1.11953028E12	wore hp down	too monitors black problem honestly tell taught king frustration called hp technical support could tell monitor bad warantee expired days prior call offered sell monitor pissed several copies fax including purchase information strongly formally worded letter got email telling were sorry order number recipet match product number monitor thats monitor computer came package duh sent strongly worded email hps ceo mark hurd through their website next day got email suprisingly call hours later apologized inconvenience sent monitor free asked send back faulty monitor included shipping stamps wear down let em youre pissed
10477	133	62739	1259775	1259555	CrzySLAM	6/23/05 2:50 PM	1.1195382E12	blackout	blackout problem monitor time started happening back sep wasnt bad turn off every minute compared every second anyways called hp tech support point warranty sent him replacement monitor yet same model around time replacement came major personal problems kept town months manage come back christmas monitor worked little while same problem anyways stayed town till april year decided move replacement monitor gone bad fully moved place monitor fixed yet waranty anyways currious everyones replacement got replacenent same model gone bad
10477	134	62739	1260123	1191929	CrzySLAM	6/23/05 7:14 PM	1.11955404E12	replaced	replaced free give buy yourself thought going best buy havent chance yet
10477	135	62739	1260157	1224120	tra1969	6/23/05 7:40 PM	1.1195556E12	bad news	fix didnt work worked good weeks started bought power supply hp didnt help went help electronics grad he told hp could put lower end power supply thier units monitor breaks resistance board grows monitor goes past power input needs goes blank he told increase volts till unit work power supply work keep sending hp nasty grams reply really suck
10477	136	62739	1261722	1246502	dlmill	6/24/05 11:03 AM	1.11961098E12	hp replaced mine free warranty	write polite truthful email ceo last friday using link hps site told him disappointed hps shoddy quality control regarding poorly soldered coils fact theyre doing anything monday morning call hp quality controlcustomer service tuesday morning monitor send old back shipping free refurbish someone else advice screw talking hps tech people send rational letter ceo oh way monitor longer under warranty
10477	137	62739	1261736	1183529	dlmill	6/24/05 11:06 AM	1.11961116E12	hp replaced mine warranty	posted few times elsewhere board id help anyone board helped monitor wrote hps ceo using link hps web site told him monitor problem mine bad solder coils backlight going said disappointed hp lots consumers same problem hp doing nothing help said id buy hp compaq friday monday got call hp tuesday monitor thing send old back charge anything hope helps
10477	138	62739	1261761	1158407	dlmill	6/24/05 11:15 AM	1.1196117E12	hp replaced dimblackout monitor warranty	posted elsewhere cnetcom board helped monitor ill post whereever hopefully helps someoine else tried everything try fix monitorpower supply different computer different drivers different video cards etc finally read could issue backlight knew problem could faintly items screen dark probably caused bad soldering coils inside monitor husband going open he could fix soldering wrote email hps ceo using link hps site told him problem fact many many others posted similar issues online said id never buy hp dissappointed hps quality control their refusal fix problem monday got call hp figured dumb tech person nice lady customer service who wanted replace monitor despite fact warranty tuesday morning monitor refurbished monitor actually works who cares thing send old monitor back fix someone else customer service lady say recall she might told anbd simply trying explain why were giving monitor advice anyone who bad monitor write ceo clear legible email explaining problem fact problem isolated fact feel betrayed hp tried find exact letter apparently didnt save copy sorry hope someone else same reaction hp
10477	139	62739	1262932	1261736	ptfarre2005	6/24/05 10:13 PM	1.11965118E12	hp made good mine replaced warranty expired	write tell group hp followed through replaced monitor wrote url group url contact url providing feedback hp exec mgmt featured many posts got phone calls three emails hp immediately provided postagepaid fedex box monitor put monitor itself box fit perfectly week later got replacement unit using unit working havent yet tried solderityourself solution hopeful hp might respond go route said aware how lousy manufacturing run known problem means warranty hanged bought doesnt work let theyll work got courteous treatment must tell pleasently surprised thanks group url thanks hp folks who respond last thing waste time trained monkeys phonein support line theyre clueless youre wasting oxygen try urlbased email route writing directly exec mgmt team based boise idaho call hps number ask michael brown boise idaho office took care everything dropping off postagepaid fedex box
10477	140	62739	1263170	1255647	LH-UK-TECH	6/25/05 3:29 AM	1.11967014E12	how repair monitor	information obtained forum tried sucessful repair technician believe fix most blackouts occur product suggested resoldering inductors power board help successfully whole procedure should take less hour remove stand screen screw unclip silver front surround buttons come need quite physical careful crack plastic remove self tappers hold lcd panel screws hold small power switch board unplug power switch board small board lcd panel lifted plastic case remove screw locks vga connector self tappers metal tape hold chrome board cover remove cover power board removed pulling off white connectors note positions undo self tappers unplug power board logic board inductors small coils wire yellow casing legs resolder inductive devices solder suck braid off old solder keen resolder legs device probably manufacturing process enamel legs properly removeburnt off causing eventual failure once done reassemble replacing chrome cover test cured problem handle keep info someone repair experience generous hp offer repair covered postage dropoff
10477	141	62739	1263182	744233	LH-UK-TECH	6/25/05 3:39 AM	1.11967074E12	how repair blackout problem monitor	problem inductors driver board screwed back lcd panel resolder devices refer detailed instructions posted near end forum repair take less hour requires crosshead screwdriver soldering iron
10477	142	62739	1264335	1220590	m0nza	6/25/05 7:26 PM	1.11972756E12	kenzoman man	kenzoman right monitor developed fault tonight followed his instructions solved problem must say dismantling monitor took little thought though anyone else doing job facer pops rear body monitor expose lcd screen removed gain access cover power inverter good point start removing front via ventilation holes top bottom small retaining lugs lever small screw driver thanks kenzoman
10477	143	62739	1264382	1092427	gregm182	6/25/05 8:01 PM	1.11972966E12	bought mine sams too	monitor started dying same problem everyone else blacks solution unplug replug short term fix soon happens same thing went hp website sent email ceo wont difference never ever buy hp product
10477	144	62739	1265447	1264382	elizabethm	6/26/05 3:14 PM	1.11979884E12	join class action	dear gregm please join us teach hp lesson litigation contact info class action investigation hp pavilion monitor paralegal girard gibbs de bartolomeo llp san francisco consumer class action law firm currently investigating complaints concerning blackouts hewlett packard pavilion lcd monitor assist us our investigation contact via email armgirardgibbscom phone web wwwgirardgibbscom blackouthtml thank adam
10477	145	62739	1266038	1255771	kobusswart	6/26/05 11:50 PM	1.1198298E12	thanks fix	same blackout problem everybody else going off every secs phoned emailed faxed details regards website pics suspect coil soldering same response sorry mate warranty months cannot reply rd party websites threw name hat regarding class action investigation pity australia sent off second email ceo last week response fed decided open backpanel guess found yep clearly visible cracks soldering coils hp thanks nothing wont cent thanks gromit lewong fix kobus
10477	146	62739	1266789	1263182	whizkid	6/27/05 9:53 AM	1.11986598E12	thanks	thank basically telling hp monitor sucks should buy thanks
10477	147	62739	1267607	765899	Sue2005	6/27/05 5:04 PM	1.11989184E12	same problem	came across forum googling ac adapter part number monitor blackout problem started mine couple months ago computer months happen few times fix seemed unplug power adapter wait minute plug back ok quite awhile past week however happens lot adapter actually called hp today order adapter quoted price told lady hp way way too she actually suggest google part number try find adapter somewhere else how found forum purchased system sams club find adapter seen suggestions fix suggestions appreciated thanks
10477	148	62739	1267803	1267607	elizabethm	6/27/05 7:25 PM	1.1199003E12	power supply fix	best article found tra subwebaddr once opened unit cover doesnt stick rubber band everything ok mine working over month power supply doesnt fix resolder coils oh please join class action against hp
10477	149	62739	1267939	1267803	Sue2005	6/27/05 9:33 PM	1.11990798E12	thing	problems monitor were getting worse looked part etc ac adapter hp website listed less seven days ago imagine surprise quote got hp parts today hello fact imagining year old son knows stuff happened look hp website around same time hp parts store himself called work tell part ok thought time until today profit markup must making big off obviously whats ok ac adapter real problem begin oh yeah surely look class action apologize advance temper discovered details hp whole issue today typing thoughts quickly before monitor go
10477	150	62739	1269492	1262932	girardid	6/28/05 4:22 PM	1.11997572E12	hp agreed replace warrenty monitor	decided last night write ceo hp found his email hp site email explained problem back light global event finished figured deleted wouldnt hear hp today work checked email found reply said thank email hp wasnt bad least got say hp felt wife supper table told hp called talk requested serial number said replacement monitor sent should arrive thursday monitor updated should normal life span said hp representative before opening write hps ceo subwebaddr
10477	151	62739	1271673	1267939	m0nza	6/29/05 3:50 PM	1.1200602E12	power supply	suei saw posting list find problem everyone experiencing voltage inverter board contained monitor itself board large inductance coils each soldered points circuit board solder applied during manufacture insufficient result heating cooling over many uses solder stresses causing discontinuity people trying different power packs voltage higher bridge poor solder while problem everyone experiencing resoldered coils
10477	152	62739	1272201	1145220	Dogood	6/30/05 12:56 AM	1.12009296E12	hp pavilion monitor blackout	power supply bad why buy ac adapter targus good brand great day
10477	153	62739	1273691	1269492	girardid	6/30/05 5:01 PM	1.12015086E12	hp agreed replace warrenty monitor arrived	please read previous post replacement monitor arrived earlier today working excellent day long people knock yourself email monitor days
10477	154	62739	1274031	1273691	kobusswart	6/30/05 9:40 PM	1.1201676E12	emailed ceo twice waiting	hi giradid emailed ceo twice second received reply thanks feedback back waiting couldnt wait longer opened monitor found visible cracks soldering resoldered works dream hp waiting
10477	155	62739	1275382	1273691	gaysho	7/1/05 1:14 PM	1.12022364E12	south american support	hi live argentina same problem wit flat panel waiting us hp support service answer cause must pay usd days warranty fell betrayed hp obviously who cares
10477	156	62739	1275397	1177251	Bob321	7/1/05 1:21 PM	1.12022406E12	worked	followed step process worked thanks million hope hp posts their website could saved time while hp start saving tons money otherwise paid their service provider sutherland technologies poor customer service provided chennai india retry process goes down tired never go back hp
10477	157	62739	1276279	1275382	LH-UK-TECH	7/2/05 2:05 AM	1.1202699E12	quicker fix yourself	refer instructions under lhuktech towards end forum list instructs how remove power board back monitor resolder inductorcoil devices type yellow fix problem nor take long
10477	158	62739	1278560	1214243	devnul	7/3/05 5:29 PM	1.12041174E12	hp monitor blackout fix	lewong thanks resoldered coils monitor back line wonder theres general heat problem caused coils begin thats causing problem connections appeared shiny cold solder joints reheating seems fixed problem time tell thanks
10477	159	62739	1280614	1261722	scottdmorgan	7/5/05 9:02 AM	1.12055412E12	worked too	spoke michael hp monitor months warranty gave him serial number he indicated problem due manufacturing defect hp sending replacement monitor today need ship back old credit card collateral until hp receives old monitor thanks advice
10477	160	62739	1286477	744233	tsmitty	7/8/05 11:12 AM	1.12082112E12	hps response	check following subwebaddr looks threat litigation spurred hp act responsible manufacturer
10477	161	62739	1290120	1286477	screwHP2	7/10/05 4:04 PM	1.12101144E12	too late	interesting must say too late buy hp product ever long girard gibbs de bartolomeo willing proceed legal option unless hp ceo comes forum apologize everyone hp offended
10477	162	62739	1290264	1290120	aebiehl	7/10/05 5:54 PM	1.12101804E12	revision number listed	revision number pt calling nowill let how
10477	163	62739	1290308	1290264	aebiehl	7/10/05 6:13 PM	1.12101918E12	actually worked	hp actually said sending replacement should friday return defect far sounds good however phone call take minutes tech initially didnt help link info saved day thanks
10477	164	62739	1296844	1267607	hulnas	7/13/05 1:58 PM	1.12126308E12	problems screen	wits end monitor yrs old acting upi read comments their monitors blacking mine showing pastel stripesi thought pc messing until hooked monitor pastel stuffis blackout help way reset thing basci trash
10477	165	62739	1297040	1296844	catsews	7/13/05 3:56 PM	1.12127016E12	problems screen goes pastel colors	same problem screen works fine bit goes pastel bluegreen vertical stripes tries come back move mouse goes back bluegreen talked hp tech he indicated problem kind graphics adapterconnection he hard understand his accent basically nothing could buy thanks hp
10477	166	62739	1299503	1145220	screwHP2	7/14/05 7:26 PM	1.12136916E12	battle hard us	youve made day teach hp responsibility look customers
10477	167	62739	1301055	1263182	wmccomb	7/15/05 12:09 PM	1.12142934E12	thanks info	little nervous taking monitor apart hardest part removing cover pretty easy thanks instructions
10477	168	62739	1301964	744233	justrollen	7/15/05 11:27 PM	1.12147002E12	offer available months date	hp lcd monitors affected hardware issue identified comparing criteria list below information monitor serial number label circled areas figure serial number label located back panel monitor serial number label criteria serial number beginning cnc serial numbers beginning cnk mya prefixes included month year manufactured extending october through june monitors manufactured june include serial numbers beginning cnc cnc revisions yt pt gt gt st st note color dot lower right area serial number label indicates lcd monitor previously repaired upgraded fix hardware issue therefore document applicable monitor figure hp lcd monitor serial number label month manufacture serial number revision color dot indicating lcd monitor previously repaired upgraded additionally following symptoms occur video display led status amber orange low brightness backlight display led status green blue intermittent video turning power video turns few seconds turns off own hp lcd monitor exhibits symptoms above meets identifying product criteria described above contact local customer care contact center determine eligible free product replacement repair depending service options available country offer available months date lcd monitor manufactured locate local customer care contact center contact hp support please visit contact hp web site before contacting hp please following information serial number label available model name product number month year manufactured month year serial number characters beginning cnc revision number characters
10477	169	62739	1303133	1301964	dthomasix	7/16/05 4:15 PM	1.1215305E12	power supply fix	fix wrote awhile ago finally ended monitor started black contact hp via link forum send monitor within days worked old power supply almost months
10477	170	62739	1304317	1290308	aebiehl	7/17/05 3:45 PM	1.1216151E12	replacement received	received replacement days same model number manufactured april lets how long works
10477	171	62739	1304365	1224047	caboclo3	7/17/05 4:35 PM	1.1216181E12	hp pavilion problem solved	got thrift store power supplydate mfg sept test operation volt battery pack wcigarette lighter cordmade center vdcwithin seconds turning ona electronic burning smell came display worked several seconds went outthro google searchfound forumtook apart located problem boardpower plugsoundfound burnt spot lower high voltage lead small female receptreheated coil solder connections blue titanium cap endsin high voltage line between transformers board receptsi snipped off burnt side high voltage wirebluefrom male plugin soldered directly lead side cap going recept boardfrom posts guess badcold solder joint problem model monitorthe board mine looked different board pics show problem same totally working flat screen thank
10477	172	62739	1305261	1304317	lbrock	7/18/05 10:08 AM	1.12168128E12	received mine three days	concerned received replacement monitor adaptor thre days replact monitor working fine old adaptor issue rreported hp april monitor months old many emails tel calls tech support csr ceo bod finally replacement lets how long works hopefully months hp says thats rplacement warranty wow whole months continue report website further issues thanks website learned alot
10477	173	62739	1306838	1303133	rclaunch	7/19/05 8:40 AM	1.1217624E12	real problem	unaware hp monitor probelm until today reviewing posts forum thought add cents root problem appear high voltage backlight inductors users need understand how things work lcd panel displays image image cannot seen unless back light panel provides illumination rear lcd panel simplified explanation back light controller unit takes low voltage power supply volts increases through inductors higher voltage higher frequency hz result parts hot backlight lcd monitor time screen saver activated monitor standby off back light shut off bouncing windows xp logo screen saver appears black background realize black portion screen result turned off backlight instead result polarized liquid crystal elements preventing backlight being seen screen savers look pretty useless lcd monitors screen savers were designed prevent tubebased monitors burning images screen lcds completely different operate principal crystal elements polarizing light light comes mainly back light panel something lcd screen means backlight backlight panels limited life anywhere hours could leave monitor years begin exceed hour figure rule use large ups never turn off either computer monitor use screen saver indicator pc monitors system nec years old look factory fresh posts opening monitors resoldering legs inductors sounds solution appear either manufacturing process wet enough solder legs circuit board improperly designed solder pads board large enough over time legs parts go through cycles hot cold causing solder joints crack word those who received replacment monitors problem size solder pads back light board ready repeat months budding technicians careful solder inductor legs flow solder across joints inductors cause spectacularly catastrophic failure shorted power applied always put monitor back together before powering those purchasing power packs yes help long additional voltage current allow unit bridge solder cracks eventually wide enough stop working those messing drivers screen savers monitor shuts off booted dos pcs setup screen leave windows setup alone check monitor computer wont hurt computer problems users were fact incompatible drivers bad power packs bad cables appear distinct designmanufacturing flaw hp lcd need step plate take care their source revenue customer years electronic circuit system design including lcd monitors touch screen
10477	174	62739	1307163	1297040	hulnas	7/19/05 12:29 PM	1.12177614E12	problem fixed yeah	ok yallhere scoop emailed hp july th recieved called following monday hp sent screen overnight works fine pleased service following email copy sent hp message wits end hpeverytime turn around something wrong computer package bought dec monitori reading message boards model seems tons problems model blacking called customer service today ask could working their response give us bucks tell oh godi paid almost thing monitor work hook yr old monitor pc email problem year old monitor vs year old monitor give break old hp pc great decided yrs ago tell impressed current hp monitor take great care belongings computers feel product inferior craftmanship quality customer service sincerely paula guys havent tried fixing yours yet try dropping line letting how feel problem cheers
10477	175	62739	1312030	1301964	justrollen	7/21/05 1:31 PM	1.12195266E12	received monitor	thanks bunch received monitor today
10477	176	62739	1312160	1183831	guyprince2002	7/21/05 2:51 PM	1.12195746E12	nt found problem	problem internal power supply external power supply located inside monitor hp agreed problem way good luck
10477	177	62739	1316195	1191929	pcd	7/23/05 8:41 AM	1.12210806E12	antigeeksquadcom	specifically reason dedicated site resources necessary avoid squad feel free check us subwebaddr
10477	178	62739	1319176	1246910	rouse29	7/25/05 4:15 AM	1.1222649E12	how open hp	hp lcd wanna how open pics fuzzy blured images blanking yet could help
10477	179	62739	1320678	1319176	screwHP2	7/25/05 4:00 PM	1.1223072E12	instruction disassembly	subwebaddr gromit found best fuzzy screen change resolution lately change back native setting use test pattern autoadjust
10477	180	62739	1322136	744233	Dogood	7/26/05 9:57 AM	1.12237182E12	hp	hi buy ac adapter hp great day
10477	181	62739	1324999	1286477	Isis1972	7/27/05 11:42 AM	1.12246452E12	hps responsemy ordeal	same issues monitor called initially before original warranty expired were trying sell warranty product monitor didnt last full year open case file called check case warranty expiredthey tried give case sell warranty product refused complained left enouhg alone email notifying monitor defect hours talking forward email defect prove received should getting replacement soon those who received replacement ask credit card number
10477	182	62739	1325091	1324999	fletch1	7/27/05 12:21 PM	1.12246686E12	re hps responsemy ordeal	please cut paste body email received hp notifying monitor defect thanks
10477	183	62739	1327309	1322136	cjgrif	7/28/05 1:02 PM	1.12255572E12	temporary	faced same problem machine work replacing ac adapter fix problem year reappeared today same monitor defect hp ac adapters maybe
10477	184	62739	1342261	1325091	Isis1972	8/5/05 7:45 AM	1.1232279E12	hps responsemy ordeal	received hp urgent support notification hp hp pavilion liquid crystal display monitor intermittent video video backlight hp dedicated helping most hp compaq products protect potential problems caused possible performance issues originating product hardware valued customer hp sending following urgent notice hp identified hardware issue hp pavilion lcd monitors manufactured october through june cause intermittent video video dimness backlight own hp pavilion lcd monitor eligible free product replacement repair hp revised warranty terms monitor beyond normal year period customers experiencing issue addressed detailed information how hp help resolve issue please use link subwebaddr hp committed providing our customers valuable support information timely manner interested feedback urgent support notification provide critical support content please follow link fill brief survey subwebaddr urgent support notification sent mdstrong yahoocom registered hp compaq product owner message critical product ownership hp prides itself being customer focused quality driven company customers trust count apologize inconvenience hp committed respecting privacy information visit our privacy policy subwebaddr contact us hp privacy mailbox sh ms houston tx replace monitor upgraded got day sent drfective monitor back postage prepaid hp
10477	185	62739	1371491	1324999	lbrock	8/19/05 3:30 PM	1.1244654E12	credit card required replacement	many many discussions hp customer service support techs board directors etc finally received word cases hp replace month old monitor however give credit card plus replacement three month warranty please consider joining class action suit against hp way replacement working fine months hope go through replaceing buy dell
10477	186	62739	1375630	1220590	theHedge	8/22/05 5:28 AM	1.12468848E12	power save problem same blackout	sons started power save problem yesterday soon monitor turned goes power save mode happens whether computer turned off monitor respond menu buttons possible enter monitor menu monitor connected computer point merely states check cable same problem different manifestation blackout problem naturally son heads back school week means hp turnaround swap his monitor applies wont cut thanks
10477	187	62739	1376618	1375630	lbrock	8/22/05 3:39 PM	1.12472514E12	power save problem same blackout	sorry bring bad news yes same problem contact hp good luck
10477	188	62739	1380177	1145220	j.clinton	8/23/05 8:42 PM	1.12482972E12	hp pavilion monitor	contact hp replacing bad monitors extended month warranty free charge
10477	189	62739	1382090	1145220	ciance	8/24/05 12:57 PM	1.12488822E12	hp replacing monitors free ask	wife called hp her going black informed send her free monitor same model model hers she told fixed old problem quiet process behalf hp replacing monitors people who call complain must recent werent doing anything before replace model years september october hopefully fall within parameter wife asked date manufacture revision number she called she obtained representative ran her through moronic steps checking ac power cord questions why didnt report under warranty happened month warranty expired typical monitor informed her she already knew essentially warranty she could point wife exhibited irritation rep passed her tech support monitors circumvent she went through request tech support monitors information ready good luck
10477	190	62739	1395362	744233	badbuff	8/31/05 4:37 PM	1.12550622E12	hp extended warrenty	hp aware problem monitor turning off extended warrentyjust contact hp customer service
10477	191	62739	1404657	1265447	hitania	9/6/05 6:18 AM	1.12598748E12	same problem	own hp monitor months old blackout problem monitor working hp claims reponsibility say recall yet same problem monitor feel cheated hp offering solution year warranty lynn
10477	192	62739	1405595	1404657	screwHP2	9/6/05 3:19 PM	1.12601994E12	try fix	warranty hp wont help usual got nothing loose try fixing yourself following subwebaddr pictures subwebaddr many people reported successful repairs good luck
10477	193	62739	1407789	1247087	isit2late	9/7/05 5:02 PM	1.12611252E12	hp law suit	having same problem blackouts frustrated our rd monitor too late added class action please help
10477	194	62739	1415717	992241	trickypete	9/12/05 10:47 AM	1.12652202E12	hp pavilion monitor blackout	visit hp web site month extended warranty
10477	195	62739	1417199	1247087	lwiegant	9/13/05 5:54 AM	1.12659084E12	hp pavilion monitor	during active session monitor suddely changes slightly color goes black while onoff botton stays blue computer goes stop shut down computer cetain time boot lately solution fails booting help ptting termonal off give short image blank thats started guarantee period mij pc bart
10477	196	62739	1418117	1417199	screwHP2	9/13/05 2:57 PM	1.12662342E12	solutions place	subwebaddr
10477	197	62739	1421467	1404657	wizard629	9/14/05 9:56 PM	1.12673496E12	hp anyone spare power supply	hey power supply went bad power module referred hp trying hp havent received help whatsoever anyone laying around could hold thanks kc wizard netscapenet
10477	198	62739	1441568	1263170	Hotdog911	9/26/05 11:21 AM	1.12773366E12	how repair monitor	works great took less minutes total take apart solder put back together difference wire coils pins resolder retouched existing solders thanks hp totally blew off months year warranty known took minutes saved hour phone call hp thanks
10477	199	62739	1445514	1261761	justafreeak	9/28/05 8:56 AM	1.12789776E12	received call hp within hours emailing	yes fix works monitor warranty started blacking same problem everyone else forum reading post went hps website emailed their ceo didnt yell him letter use offensive language stated problem fact obviously numerous people same problem provided him information he need name address phone number thats how contacted email address model serial ref product rev told recmoneded hp products friends family coworkers contacts hate buy dell monitor start recomending though included harsh language within hours case manager called he nice compentent monitor sent via fedex arrive days shipping labels return defective charge confirm seperate post arrives product six months warranty honest hp didnt care opinion best fix problem
10477	200	62739	1449505	1404657	namakins	9/30/05 8:49 AM	1.12807014E12	hp	oh manthe blackout issue started few weeks ago flickering call hp waited until seconds viewing ability followed blackout days warranty expired guessing same issue
10477	201	62739	1478213	744233	soldano	10/15/05 8:20 PM	1.1294076E12	monitor fixedchange power supply	problem monitor over past few days decided change power supply purchased simple variable ac adapter radio parts presto rock solid dropping anything anymore monitor once perfect grizzle fix rather simple quite inexpensive under change power supply original units supply must heat stress issues months causing drop down voltage monitor dims black due drop power
10477	202	62739	1486787	1286477	kingpin10	10/20/05 11:06 AM	1.12980636E12	never buy hp	usual problems display blackoutetc hp quick send moniter got refurbished dead pixel lower left hand corner screen contacted hp said could return bad pixel sense hp bad moniter send anyway hp said againt industry standards send moniter shocked confused insight matter
10477	203	62739	1487518	1478213	nordicajun	10/20/05 8:44 PM	1.12984104E12	product number	power supply called hp gave major runaround thanks
10477	204	62739	1489176	1478213	nordicajun	10/21/05 1:51 PM	1.12990266E12	part number power supply	answered own question part number power supply lcd monitor adpc bb ebay around parts house around
10477	205	62739	1490307	765899	donclassey	10/22/05 7:17 AM	1.12996542E12	hp pavilion monitor	months date purchased above monitor went totally dead understood guarantee period months somewhat fed however contacting hp uk where monitor purchased informed guarantee period monitor years replaced free charge incidentally june
10477	206	62739	1499290	1489176	soldano	10/26/05 11:34 PM	1.13036964E12	power supply hps offering fix	let go further replaced power supply volt amp unit screen working fine problem reapears put old volt amp supply unit problem best knowledge main board inherant architectual problems bad design quality chosen return unit back hp fix replacement acknowledged problem offering hp genuine repair hp website subwebaddr unit give grief
10477	207	62739	1508574	1499290	mmyers168	11/1/05 5:28 AM	1.13082288E12	same problem	searched hps website havent found anything stand deal people phone give run around having same exact problem monitor anyone experience hp acknowledging problem monitors purchased during same time period everyone else monitors difference size husband going try soldering furious reading posts site inlaws purchased monitor waiting call having same problem coming anyone luck hp monitors please let thanks
10477	208	62739	1509304	1445514	chilak	11/1/05 1:15 PM	1.1308509E12	replacement	same probelm sent email recommended actually recieve replacement monitor hp
10477	209	62739	1512889	1499290	hassib	11/2/05 5:07 PM	1.13095122E12	experienced same problem	hi thanks posts experiencing problem early summer called hp customer support help opperator able screen reappear occurred third time last time able fix finding topic great relief reading hp page confirming problem tried contacting local ny ny service centers take monitor repair best buy micro comp micro repair hp monitors best buy idea referring geek spoke asked print copy hp page call corporate bring proof called best buy corporate customer help told call hp fed called local best buy asked how repair cost before giving price he said take weeks agreed cost work ship service center should went straight hp called explaining problem customer service assistant who could reported same thing before csa ordered replacement monitor should recent manufacture date fix supposedly made arrives few days although frustrated hp taking long admit problem monitors issue recall least addressing ill twice consider hp product wont refuse buy unlike ea games battlefield
10477	210	62739	1512983	1509304	lbrock	11/2/05 5:52 PM	1.13095392E12	replacement received	yes received replacement month warranty top
10477	211	62739	1515577	1508574	soldano	11/4/05 3:15 AM	1.1310741E12	unit fixed hp newly extended warranty	screen repaired hp under extended warranty unit seem problem power coils power circuit board jobsheet written were replaced resoldering dry joints real savvy soldering iron opening unit doing myself never going consideration hope helps
10477	212	62739	1539498	744233	lennyo	11/15/05 2:37 PM	1.13206542E12	hp response problems	those who having problem monitor noticed hp web site hp recognized problem instituted replacement policy subwebaddr
10477	213	62739	1551311	1539498	THG_SCORPIAN5	11/21/05 11:16 AM	1.13257176E12	help	dear sirmadam subwebaddr where ever world hp offering free repair replacement defective monitor months additional warranty check aout website above hope helps kind regards mr cheema
10477	214	62739	1552569	1551311	argentat	11/22/05 12:09 AM	1.13261814E12	help where	overly optimistic say hp repair replace free charge regardless location link hps info action clearly states such decision depends service options available location germany contacted hp were polite sympathetic essentially told monitor sold serviced switzerland incumbent monitor swiss address hp pick repair return swiss address where pick own expense monitor sold month warranty didnt stupid enough invest sort time money theyre right course local repair shop look unit along postings thread technicians fluent english advised translate monitor junk day left factory assessment made opened found connections were soldered made sort puttypaste were surprised hp claimed year warranty saying manufactured wouldnt daring soldered connections hp stuck together putty unit goes black intermittently before repair guess power supply faulty should replaced passed information displeasure along mark hurd ceo hp got quick reply look case weeks ago promisied myself patient least responded
10477	215	62739	1630649	1441568	hombrerojog	12/27/05 5:31 PM	1.13570466E12	hp monitor blackout	anyone else luck repairing blacked monitor problem taking mine apart locate faulty solder points look tips several messages mention inductors power board four copper wire coils around black plastic base ones anyone picture power board help locate faulty points same way link site picture power board posted help welcome monitor quite old over years rather repair buy thanks
10477	216	62739	1636110	1449505	saotlo	12/30/05 8:59 AM	1.13593314E12	hp	started blacking week months called hp wanted spend tech support software issue wrong called through their calif office actually got speak english speaking american he senior case manager big whoop monitor same serial same manufacturing same problem wont anything add insult injury case manager offered upgrade refurbished monitor day warranty why world upgrade having problems stupid trying pawn off their sent back
10477	217	62739	1653772	1278560	robertmclaughlin	1/7/06 7:49 AM	1.13662014E12	blacking	read message last summer fix work got same problem bought years old
10477	218	62739	1653784	1264335	robertmclaughlin	1/7/06 7:57 AM	1.13662062E12	hp monitor	monitor working properly went months ill try fix yours workingand thanks extra help posited getting monitor
10477	219	62739	1671183	1224047	skruffylooking	1/14/06 2:29 PM	1.13724894E12	oh yeah fixed problem problem came back	followed heat shield directions able fix monitor worked charm several months hadnt reason worry day around years screen flickered didnt worry too happened often until today second onoff problem unsure should toss demon buy fix maybe through hp monitors cheap nowadaysand sony great dealshmm mmm
10477	220	62739	1673448	1671183	screwHP2	1/15/06 5:39 PM	1.13734674E12	ur luckier	mine lasted few weeks tried power supply fix lasted few months final fix resoldering coil working over months description subwebaddr pictures subwebaddr hp fix subwebaddr really pissed join subwebaddr
10477	221	62739	1677562	744233	vb_lvr	1/17/06 4:00 PM	1.1375136E12	hp lcd monitor working	too monitor go black today jan blue light power switch stays onmonitor getting signalorange indicate sleep mode screen goes black few seconds pushing power button off back give display seconds go black taking strong flashlight screen show lcd display itself working became backlight issue googled visiting hp site shows monitor covered extended warranty monitormy manufacturer date july reason problem didnt surface earlier computer storage year suspected power supply problem onset problem became increasing worse over last days until finally stay seconds time visiting cnet forum indicated manufacturing defect following web page shows detailed pictures exact problem called cold solder joint subwebaddr solder joint isnt soldered properly begin over time solder crystalizes due heating cooling cycles joint case maybe enamel coating wasnt removed coil sufficiently causing improper solder wicking time resistance begins builds causing heat present joint causing further increased crystalization electrical resistancea snowballing avalanche effect repair takes half hour tricky part separating back half monitor front silver bezel following disassembly instructions were taken post additional comments added andor modified post left resolution subwebaddr tools needed philips screwdriver round shaft jeweler type small flat head screwdriver spackling putty kniveall home depot soldering iron solder sucker gauge dia solderall radio shack never use high wattage soldering iron heavier gauge solder printed circuit board buying monitor remove electrical connections tft using flat head screwdriver remove blue plugs above silver stand bracket rear screen sliding sharp screwdriver down along outside edge plug prying upward remove brass screws screen stand should seperated using putty knife gently pry silver bezel away blue body monitor outer edge best place start bottom corner screen near menu select buttons hear slight cracking crack good snap bad work putty knife back side monitor being extremely careful gentle work lighted room non slippad table protect screen best results obtained holding monitor edge sliding knife between bezel case prying downward toward center monitor work direction menu button corner along bottom side accross top back down side separating bezel easy once technique established became easier silver facia removed screws front screen hold screen body remove screws carefully turn screen face down aluminum looking heat shield using knife cut threw metal tape seals remove locking spacer nuts blue pin connector remove screws each side heat shield gently push heat shield towards bottom screen free tabs remove screws fl backlight inverter toriod coils circuit board refer link detailed pictures subwebaddr solder joint discolorationyellowbrown solder side fl inverter board indicates too heat present possible cold joint bad joint exact same location pictured good soldering techniques should practiced before making repair bad cold solder joint look shiney how solder practice gauge scrap wire placing soldering iron against joint seconds seconds applying minute amount solder until flows necessary proper repair apply too solder suck back off solder sucker tool reapply minute amount compare joint others board reassemble monitor using steps snapping back together breeze worth tools running time own monitor old reconditioned monitor hp replaces free working hp hewlett packard lcd monitor tft display goes black shuts off backlight
10477	222	62739	1678107	1677562	vb_lvr	1/17/06 8:24 PM	1.13752944E12	hp backlight blackout problem	forgot mention previous post white wire harness connectors fl backlight inverter circuit board located under silver colored tinned rf shieldincorrectly called heat shield unplugged repair once screws holding board down removed board slid connector mating circuit board simply flipped over expose solder side board resolder repair
10477	223	62739	1693345	1220590	maadco	1/23/06 4:18 PM	1.13803308E12	re inverters	inverters look th hp seen image model annot find anything board please help
10477	224	62739	1700153	744233	linlinformaticien	1/26/06 1:19 PM	1.13828154E12	hp paviion tft monitors black	hi french repairman most theses monitors repairi buy package broker fact theses monitors same problem france toothe twenty pieces come big french society order thinking made screen pieces impossible bad chinese manufacture bad design circuits roof samewhat matter charts were made chinese manufacturer others elsewhere nutcase irreparables hp beautiful swindler who makes manufacture china profit problem world done kiss france usa veiled laz small history whom put screens dustbin whereas breakdown idiot amplifier cop released untraceable should ordered salut parts alain
10477	225	62739	1701653	1247421	wirelesswendy	1/27/06 7:06 AM	1.13834556E12	trial lawyers biggest crooks	subwebaddr
10477	226	62739	1702569	1539498	robh94	1/27/06 1:45 PM	1.1383695E12	hp knows who bought defective monitors	hp knows who bought defective monitors should issued product recall year ago how many above paople their friends trust hp
10477	227	62739	1710917	744233	mine2luv	1/31/06 3:51 PM	1.13872266E12	give replacement monitor	called hp sending brand model hp pavilion faulty replace free pay shipping were extremely nice itit blew mind how easy prepared battle warranty matter long model important hope helps everyone
10477	228	62739	1711020	1449505	foolsgrave	1/31/06 4:32 PM	1.13872512E12	hp blackout issues	too experienced problems described today faxed four page letter ceo mark hurd hp requesting investigate problems having monitors advised him prepared file complaints state attorney general office business bureau already contacted law firm girard gibbs san francisco who initiated investigation issues prior hp extending warranty those models open investigation ignore request advised him many us posting cnet issues he cannot say anything past found type action end positive results proceed complaints resolution advise mr hurd forward anyones name who interested resolution back let progress nd good maybe communicate our issues resolved
10477	229	62739	1712706	1711020	namakins	2/1/06 7:19 AM	1.13877834E12	hp blackout issues	thank proactive response issue paid post warranty technical support tell take back where purchased repair yet done sometimes try monitor hoping spontaneous recovery such luck same problem others having inch monitor thanks
10477	230	62739	1726265	744233	hdzabella	2/7/06 9:58 AM	1.13930628E12	hp pavilion monitor blackout	experienced same thing same monitor over years yesterday researching problem found hp link subwebaddr notes hp pavilion monitors hardware issues cause monitors intermittent video video backlight replace monitor monitor fits criteria outlined called monitor fits took while phone major hassle however receiving monitor within days hope helps irma
10477	231	62739	1757589	1259775	dfgtuyn	2/20/06 11:45 AM	1.1404359E12	heres solution	bought mine feb started failing hp admit liability page their website hidden subwebaddr should warranty replacementas effectively purchase say tough sash
10477	232	62739	1776795	744233	nnaannccyy	2/27/06 2:53 PM	1.14105198E12	replacemed hp pavilion tft monitor blackout	same problems hp pavilion tft monitor everyone site mentionsblackouts fact trying rush through message how long stay working wanted thank everyone putting their experiences without their messages never known hp problem sending replacement tomorrow were extremely nice
10477	233	62739	1785211	1776795	suepip	3/3/06 8:03 AM	1.14137298E12	hp pavilion	having same problems everyone else thread however alright usa easily exchange emailed american site hp informed authorised exchange faulty models usa therefore got touch uk branch told phone particular number next useless couldnt speak human being please help someone unsure next must people uk faulty monitors thanks
10477	234	62739	1844216	744233	nameless84	3/29/06 5:58 PM	1.14365508E12	possible fix maybe power supply too weak	previously stated power supply culprit please yourself favour check required input voltage back monitor power supply output amount wasted several hours trying fix simple problem proper power supply inches away btw moms coworkers came power supply needed power supply pretty stupid eh
10477	235	62739	1847141	1844216	argentat	3/31/06 6:35 AM	1.1437869E12	blackout	took advice checked monitor power supply monitor labelled while power supplys output rated assume correctly supply sufficient monitor problem seem elsewhere
10477	236	62739	1866552	1757589	jayasaktian	4/9/06 10:20 PM	1.1446212E12	extended warranty	saw website problem monitor limited period months time manufactured time purchased passed year limited warranty passed date manufactured hp really screwing us wont ever buy hp product
10477	237	62739	1878511	1847141	nameless84	4/15/06 8:45 PM	1.1451339E12	reply argentat	honest knowledge larger power supply generally cannot hurt device should take needs point anyway course could complete disinformation could problem power supply although seems unlikely hopefully borrow power supply someone required output definitely buy whim bc really expensive
10477	238	62739	1885458	1263170	leat0n	4/19/06 2:01 PM	1.14545526E12	oh worked	said worked great didnt take solder off add little worked fine bother sending flat screen hp follow instructions thanks dave
10477	239	62739	1895234	744233	dalegraves	4/24/06 6:44 AM	1.14586104E12	hpn pavilion flat screen monitor button wont turn	onoff button straight little off center nothing happened until today wouldnt turn searching recall before contact company warranty didnt own long
10477	240	62739	1895321	1263170	CharlesDuFarle	4/24/06 7:47 AM	1.14586482E12	amazing	brother man followed tutorial exactly monitor works perfect found monitor garbage tried ps thats how found doing blackout thing therefore once found post quickly disassembled resoldered thats thanx xellaphan
10477	241	62739	1895355	1895234	dalegraves	4/24/06 7:58 AM	1.14586548E12	hp pavilion flat screen monitor button wont turn	trying correct heading typoi meant hp hpn onoff button straight little off center nothing happened until today wouldnt turn searching recall before contact company warranty didnt own long
10477	242	62739	1907729	1866552	Danakavm	4/30/06 7:27 AM	1.14638202E12	extended warranty	wtf really pissed pissed monitor stopped working called hp time warranty year warranty could anything extend warranty didnt notify anyone who tried replaced before missed extended warranty months already brought monitornonhp never buy hp thanks sharing information
10477	243	62739	1922408	1247087	Piddyd	5/7/06 5:15 PM	1.1470221E12	blackouts hewlett packard pavilion lcd monitor	own hewlett packard pavilion lcd monitor lot blackouts annoying how solve problem thank
10477	244	62739	1922782	1263170	djl3779	5/7/06 9:38 PM	1.14703788E12	repair monitor save bundle	problems shutdown screen hp monitors apply tatung monitor made hp maybe tatung makes hp who knows ref subwebaddr way problem blackout bad solder joint power inverter board take skill ultrafine solder tool finest solder buy smt boards email send coil trick remove screen bezel without breaking locking tabs best start bottom monitor work fine narrow bladed spatula large blade xacto knife pry off clip starting center working small flat blade screwdriver slide along bottom working screwdriver each snap flat blade hold plastic opened enough work around sides top should pop off gentle smack hand once inside remove carefully frame monitor screws monitor cable connector posts carefully pry off multipin connectors turn over entire assy hand holding screen remove plastic case crack lcd point lay down towel soemething soft remove chrome cover machine screws tap down comes free each connector removing foil tape gently lift each connector using stiff penknife flat bladed tool designed connectorsdo bend pins best mark return position black marker polarity remains same force should required replacing remove eight screws holding main circuit board inverter board remove four prong connectors side inverter mark carefully numbering sockets go back inspect under lighted magnifier cold joints found suspected resolder carefully avoid possible tiniest smt components extremely difficult resolder replace stick tiny yellow coils torroid coils ring solid copper witre around large driver coils unsolder using solderwick sucker resolder carefully fully being solder almost flowing reverse side board tiny yellow coils removed should resistance approx mohms returned same polarity removedthe board should marked swap their positions board top bottom bottom top carefully reinspecting remaining joints solder repairs reassemble same order removed presto monitor work above instructions didnt work either butchered monitor didnt skill work circuit boards use monitor anchor never problem good luck solder coil payments made paypal sybensuncoincom email advance syd
10477	245	62739	1923256	1922408	djl3779	5/8/06 7:02 AM	1.14707172E12	hp monitor	relatively easy repair yourself capable go subwebaddr syben
10477	246	62739	1923258	1907729	djl3779	5/8/06 7:03 AM	1.14707178E12	hp monitor	relatively easy repair yourself capable go subwebaddr syben bought repair keep backup sell ebay
10477	247	62739	1923259	1895355	djl3779	5/8/06 7:05 AM	1.1470719E12	hp	relatively easy repair yourself capable go subwebaddr syben
10477	248	62739	1952758	1145254	blaberdude	5/22/06 11:05 AM	1.1482959E12	hp monitor replaced	thanks info board got mine replaced within days those were shipping time followed link listed above hp execs emailed mark hurd ceoon friday details problem plus supporting info board received phone call monday sent replacement argument apology trouble note manufactured during dates listed above mine manufactured months later criteria were same warranty expired despite fact support gave satisfaction email sent suggested got immediate response opinion hp handled quite satidfied negative should made happy called customer service st place thansk people
10477	249	62739	1953115	1923258	Mamaluke321	5/22/06 1:57 PM	1.14830622E12	blackout problem	thanks support posting solution hp monitor issue months usage power light went monitor although suitable voltage power supply clearly wasnt power supply issue resoldering four inductors trick took hours effort most difficult part removing monitor bezel found carefully applying pressure screen side bezel came off easier prying outside thanks saving lot time money grief
10477	250	62739	1960253	1261761	mjp18	5/24/06 1:18 PM	1.14847668E12	hp monitor repair warranty	sent email mark hurd next received reply next day received phone call case manager days later received monitor cost next day received call case manager wanted received monitor okay sending back old monitor tomorrow excellent support follow through hp hank
10477	251	62739	1998481	1263170	madcapmel	6/12/06 1:46 PM	1.15011996E12	resolder job workedthank	thanks information resoldered connections monitor works thanks dan
10477	252	62739	2015523	1145220	kws1111	6/20/06 2:47 PM	1.15081482E12	hp pavilion monitor blackout	too purchased hp pavilion guarantee period started blacking retailer john lewis advised cost effective repair ripoff hp operating sort scam use domestic setting children their own computers long id expected socalled top name feel refund replacement warranted
10477	253	62739	2019149	744233	deeh889	6/21/06 10:27 AM	1.15088562E12	heres remedy	try volt amp power supplythis non authorized hp remedy worked hp offeredgood luck
10477	254	62739	2019877	1952758	paulsaffrin	6/21/06 2:41 PM	1.15090086E12	mine corporate line read website	sent email ceo explaining chat line told replace monitor days called said read website serila number digit beyond spoke his supervisor who said same thing read website emailing mark hurd qc called going through revision number dat fg etc said should read website document fixed product unless class action suit gets going arent going anything guess need learn electronics repair buy hp
10477	255	62739	2019894	2015523	paulsaffrin	6/21/06 3:01 PM	1.15090206E12	poor hp response	should try support feeling masochistic went through hour email chat where said theyd replace day wait called found wouldnt emailed ceo their qc follow tell go read web site bought hp perception quality their company
10477	256	62739	2031393	2019149	screwHP2	6/26/06 10:01 PM	1.15135926E12	short term fix	hello hollywood please stop confusing power supply fix short term tried toshiba ps worked few months dead fixing dry joints repair fxxxg hp rubbish permanent
10477	257	62739	2035441	992241	docwato	6/28/06 4:05 PM	1.1515107E12	hp pavilion monitor blackout	thought who blackout problem didnt pay talk hp support thought check things online different computer amazement seems quite lot others who problem occurred monitor month ago day turning monitor off dusting around cords pulling cords finally started working couple weeks yesterday happened couple times today happened wouldnt go back normal people recommend doing best option buy monitor hp
10477	258	62739	2046636	1404657	christopherfuller	7/4/06 11:12 AM	1.15201152E12	power module ac adapter	lost power module above odered hpcom didnt looking item
10477	259	62739	2055404	744233	patend	7/8/06 8:16 PM	1.15238976E12	hp pavilion monitor blackout	monitor over year old experiencing same blacout issues problem wire plug connects back monitor plugged electrical outlet black box between montor outlet connector plugs back monitor looses contact reson trying purchase plug wire assembly online
10477	260	62739	2066968	744233	rapeters20	7/13/06 8:00 AM	1.1527776E12	try quick fix worked hp	monitor onpush hold power button push hold menu button wait few seconds holding buttons release presto magic try few times work suggest adjusting resoulution refresh rate seems monitor detecting low negative signal graphics card goes power save mode adjust monitor power settings control panel although doubt change good luck mighyjoe
10477	261	62739	2086479	1263170	depotwest	7/22/06 11:04 PM	1.15360944E12	thankyou	hp highly pathetic called hp talked guy who americanenglish name heavy indian accent inquired monitor blanking being seconds he could tell screen warranty already knew he could sell told him wanted means fix asked him tell problem he could tell how fix sell part replace his answer wrong except manufacturing defect poor highly pathetic broke howwhy appreciate greatly post simple instructions perhaps lhuktech should work hp raise their level competence
10477	262	62739	2087297	744233	docwato	7/23/06 2:36 PM	1.15366536E12	try	hey should read post sashlondonit hopefully helpful heres solution sashlondon profile jessica
10477	263	62739	2102746	744233	docwato	7/31/06 11:40 AM	1.154346E12	renee visage	heres website link subwebaddr went link checked qualified replacement monitor called hp before chance ask pay help told found website theirs should qualify replacement monitor lady simply helped getting info replacement sent took maybe minutes done monitor came within next days packed old monitor box sent back hp hope helps let further questions jess
10477	264	62739	2152500	2102746	djvang	8/23/06 8:24 AM	1.15632144E12	replacement monitor	similar experience same monitor problems everyone else called hps help line reached michael who could barely understand told him found hps page detailed problem thought qualified replacement monitor built april meant missed extended warrantly period week his response basically too bad called last week replaced good day sent email hp purchased pavilion monitor along pavilion pc june until few months ago monitor started blacking periodically usually powering down solved problem however weeks ago got progressively worse stay seconds time basically useless checked similar problems internet discovered website subwebaddr wasnt until realized known problem contacted call center info requested disappointed told monitor built april missed extended warranty period week essentially told too bad called last week replaced purchased hp products pcs monitors printers cameras long remember imagine how disappointed treatment received feel should notified purchasers known problem monitor rather having find too late feel should replace monitor penalize discovering problem week too late hope issue resolved satisfaction thank time responded immediately thank contacting hp total care regret quality service received through phone support meet expectations candid feedback such yours help us improve our service reviewing message understand experiencing issue hp pavilion monitor replacement repair hp pavilion monitor apologize inconvenience caused appreciate patience cooperation happy assist through our email support share information discussion level supervisor issue glad ship replacement monitor serve esteem customer following information help getting hp pavilion monitor replaced replacement monitor house three days later guess sometimes pays complain feel free use email replacement
10477	265	62739	2168283	744233	wig34	8/30/06 11:03 AM	1.15693578E12	blackou	exact same problem become black second appearance onscreen picture turn off should
10477	266	62739	2176921	1630649	ff107	9/3/06 6:43 PM	1.15730898E12	monitor problem	luck repairing monitor mine apart look resolder
10477	267	62739	2233427	1263170	guitarman416	9/29/06 6:49 AM	1.15951254E12	thank	fighting monitor off past few months thinking power surge took xp install damage monitor few days ago seemed die frustrated thinking inverter finally given ordered replacement later started researching repairability availability replacement inverter happened upon thread unfortunately discoverd months outside getting hp repair replace instructions forum regarding resoldering inductors trick thanks thread
10477	268	62739	2291547	744233	Platinum_Princess	10/24/06 6:03 PM	1.16171298E12	hp pavilion tft monitor blackout	monitor doing right problem once before took best buy fixed soldering parts together backlight part monitor fixed awhile monitor little over year old doing need take back best buy could fix replace nice thought id add sents wish could help suggestions how fixed
10477	269	62739	2292564	2291547	girardid	10/25/06 8:07 AM	1.16176362E12	hp pavilion tft monitor blackout	same problem over year ago warrenty everyone trying call hp back exchange monitor refurbished modified problem give credit card until return old monitor replacement arrive day via fedx same box labels supplied less week back business easy stress fuss year later refurb working great
10477	270	62739	2294162	2291547	LH-UK-TECH	10/26/06 12:33 AM	1.16182278E12	repairing tft monitor	refer previouse email lhuktech how repair monitor yourself cheap soldering iron screwdriver required print off nearest friendly techy help
10477	271	62739	2296719	1441568	bayhoecott	10/27/06 10:00 AM	1.1619432E12	hp pavillion monitor going blank	taking power board defective resoldering four toroidal coils fixed problem screen going blank usually seconds tip use stanley knife smaller scrape gently solder slightly below where wire enters tiny solder bubble four round coils wires each board tilted upwards apply small amount solder iron seconds magnifier whilst examing board final soldering feel friend who electronicradiosoldering experience takes less minutes front bezel removed prising screwdriver top left take rubber plugs back stand screws need removedremove panel screws plus interface cable nuts screws holding metal shield bend clips shield metal shield off four screws remove board plus plugs right note where go board pulled sideways socket usually blacki wish fixes where easyeureka
10477	272	62739	2297428	2296719	namakins	10/27/06 4:11 PM	1.16196546E12	hp pavilion issues	anything blackout issues version monitor monitor went bad right warranty expired anything hps website addresses issue
10477	273	62739	2301179	744233	suepip	10/30/06 5:59 AM	1.16218794E12	hp pavilion tft monitor blackout	heres slant hp monitor blackout problem successfully managed replacement original faulty monitor last march working great until last couple weeksoctober doing same monitor screen going black etc anyone else same problem worth contacting hp replacement replacement appreciate thoughts matter thanks
10477	274	62739	2315990	2301179	zwarder	11/7/06 6:47 AM	1.16288202E12	hp tech support chat	hi conversation few minutes ago richards welcome hp total care desktops name richards how assist today richards hi arnold arnold livingston hi hp monitor faulty richards could please provide detailed description issue assist arnold livingston blacked turned back picture scrambled arnold livingston model richards okay richards issue start arnold livingston month ago richards okay richards could elaborate picture issue scrambled arnold livingston looks lines mixed richards okay richards tried troubleshooting steps before contacting us arnold livingston yes tried different pc different vga cable same problem exists richards gather monitor behaves same connected different pc correct arnold livingston yes richards okay richards suggest reset monitor using buttons monitor issue persists need monitor serviced arnold livingston warranty cover fault richards yes issue covered under monitors warranty arnold livingston how try reset richards need using buttons monitor richards press menu button open screen display osd main menu arnold livingston cannot read osd menu picture scrambled richards okay richards need monitor serviced richards unfortunately reached us support team right richards information provided tells uk richards correct arnold livingston believe blackout fault common actually replacing models past warranty date arnold livingston yes uk richards option expired september richards cannot provide servicewarranty options form end richards need contact support team region check service options arnold livingston missed short period time richards unfortunately yes richards confirm option region chat support specialist uk richards please access following weblink support options uk richards subwebaddr arnold livingston why recall screens develop fault richards recall many monitors possible records richards most monitors sold resellers cannot track those purchases unless customer contacts us issue arnold livingston ok purchasr hp ever richards sorry feel way replace monitors ridiculous anyone how fix scrambled pic
10477	275	62739	2320606	1286477	M_M_2	11/11/06 11:23 AM	1.16324418E12	doc down	same problem actually
10477	276	62739	2320613	1395362	M_M_2	11/11/06 11:29 AM	1.16324454E12	need realize same issue	contacted hp issue told best selling model nobody complained myself issue keep calling ppl
10477	277	62739	2328797	2315990	kevin aldren	11/22/06 6:16 AM	1.16417616E12	hp pavilion screen blacks poss fix	hi reading thes topic interest screens come warrenty found web page gives advise possible fix covered sworth look off try monitors nothing loose ps always great service hp issue blroble digging head sand take responsability let oit works
10477	278	62739	2330678	1922782	Beum	11/25/06 2:45 AM	1.1644227E12	happy owner	worked fine years finally broke down course extended warranty period over must admit bit reluctant start messing around inside monitor being dissappointed hp customer service department finally decided give try followed instructions case joint believe quite easy identify indeed coils subwebaddr good pictures removing cover investing soldering iron saturday morning saved monitor good luck others facing same symptoms
10477	279	62739	2335698	2328797	Geekypr	12/1/06 7:54 AM	1.16495964E12	blackout	same problem monitor resolder bad points test later case someone need service manual pdf document contact email shortly manual covers following models fp vf fp keep posted resoldering monitor thanks
10477	280	62739	2336020	2335698	bulkerconnor	12/1/06 1:37 PM	1.16498022E12	blackout	our monitor blacked clearly many hp longer warranty monitors months time manufacture consideration purchase date phone email reps were talented telling sucks polite manner hope others avoid hp certainly off buy monitor
10477	281	62739	2337335	2336020	Geekypr	12/3/06 11:07 AM	1.16514402E12	fixed	mentioned earlier resolder bad solder points monitor working fine recommend works thanks service manual upon request
10477	282	62739	2337339	2337335	Geekypr	12/3/06 11:12 AM	1.16514432E12	black	mentioned earlier resolder bad solder points monitor working fine recommend works sorry misspell
10477	283	62739	2337769	2337339	bonsai_ji	12/3/06 11:15 PM	1.1651877E12	whoops goes	hi until weeks ago poor thing died young months disease bad case flashblacks finally death unique smell burnt electronics husband friend going try mad scientist option bring thing life thanks who posted secret inner workings chance life yes try response hp score consider monitor same problem month extended warranty etc warning everyone
10477	284	62739	2346068	2337769	Oldspud	12/13/06 5:50 AM	1.165989E12	black screen disease	boy got right hear hps jd powers associates certification customer service shoot myself unit mfg june died dec month life expectancy quality communicated daniel samuel peter charles sara never same twice thought communicating twelve apostles never got real guy results frustrated mad individual who tell anyone who listen hp products junk their customer service world class joke consider their products throwaway items purchased model printer day before quit never opened took back today told whole store lousy warranty guess ill try cold solder fix said
10477	285	62739	2351009	2346068	Oldspud	12/18/06 8:11 PM	1.16647266E12	resolder works	followed instructions given leslie wong his blog subwebaddr took minutes disconnect dissassembly repair reassembly reconnect walla works heck lot service offered hp kind tv commercial mikie try youll
10477	286	62739	2352013	2337769	bonsai_ji	12/19/06 9:41 PM	1.16656446E12	could revive monster mean monitor	folks mad scientists tried resoldering joy took card specilist dead dead dead thought might buying hp merry christmas
10477	287	62739	2360671	2337339	daveincamas	12/30/06 10:35 PM	1.1675181E12	goes off lalaland	anyone problem their subwebaddr tried soldering fixes cold solder joints etc case didnt help guessing component died ideas look started doing intermittently time press menu button remnants menu screen colors lines morph different patterns monitor alive somewhere mine made september
10477	288	62739	2374905	2360671	ssmith6471	1/13/07 5:56 PM	1.16871096E12	hoping different experience	monitor went dark couple days ago built july bought dec sams club same failure described thread called hps almostcoherent support center india transfered technical support declined pay replacement mr technical wasnt talker called back alan offered talk could fix through email marvelous feat asked supervisor holding minutes none people spoke hp acknowledge months warranty extension defects general being sol spare monitor worth wait debate try replace power adapter never buy hp always bought kids theyre cheap reality cheap buy dell computers last running strong years last dell bought lcd works great
10477	289	62739	2406454	2374905	Oldspud	2/16/07 3:06 PM	1.17163836E12	hp problem	smith problem december last year got same results people hp sent email ceo hes dumb rest hps employees none brains god gave goat goat knows put his head down something constructive cold joint solder fix mr wong suggested fixed problem going great suspect complete buildrun their circuit board factory were defective hoped ignored could away few replace wrong lost lot potential customers who never buy hp product long live ill continue tell whole world why friend soldering capability try mr wongs procedure hurt right worth boat anchor works got standby monitor boat anchor ever buy hp product good luck oldspud
10477	290	62739	2408226	2406454	arnold_pdx	2/18/07 10:55 PM	1.1718393E12	dell fpb flat panel lcd monitor	dell monitor died day makes wonder parts come same manufacturer hps going try resolder coils inverter board fixes problem anyone else similar issue their dell monitor response dell classaction works against hp similar action against dell
10477	291	62739	2418678	2351009	knows2little	3/2/07 11:52 AM	1.17283632E12	guts	having troubles getting case open place were able find instructions diagram how open case experience same problem thanks advance knows little
10477	292	62739	2418806	2418678	Geekypr	3/2/07 2:30 PM	1.1728458E12	guts	take photos send email let
10477	293	62739	2419939	2374905	Mystranonymous	3/3/07 5:32 PM	1.17294312E12	spread word	going spread word through youtubes most viewed videos commentsgt
10477	294	62739	2424637	1255647	skillsusaprez	3/8/07 3:40 PM	1.1733684E12	hp blackout problem let fix	fix hpf flat screen monitor monitors shipping included interested send email hpf monitorfixyahoocom call back received email irvin lemus
10477	295	62739	2428839	2335698	mondeopete	3/13/07 12:29 PM	1.17378894E12	blackout	hii monitor blackout symptoms got pdf manuals could please send methankspete
10477	296	62739	2429007	2428839	Geekypr	3/13/07 3:35 PM	1.1738001E12	service manual	send service manual post email
10477	297	62739	2445980	2429007	Geekypr	3/30/07 7:51 PM	1.17528426E12	hp xx service manual	apologies put computer back able send service manual those who need resend email soon place file shared service anyone good luck
10477	298	62739	2450594	2429007	bosnia58	4/4/07 8:13 PM	1.17571758E12	solution fix	bought hp monitor trift store good condition time conect pc working second thinking crash him throw trash insted open him experimenting him inside white conection goes monitor unplug plug back wonder monitor working sugest hp monitors owners experiment monitor working good advice
10477	299	62739	2451114	2450594	LH-UK-TECH	4/5/07 11:36 AM	1.17577296E12	fix	lucky fixed ever probably most need resolder yellow inductors power board failed joints many monitors
10477	300	62739	2468198	2429007	gcinelli	4/23/07 8:36 PM	1.17736056E12	need hp service manual	looking obtain service manual lcd reflowed joints replaced numerous caps seem find culprit genisis gm logic pcb defective before scoping chip datasheet service manual reading around forums many same issue backlight fine hoever seems cable bad video come fade kinda goes blank video lines fade solid blueish reflowed cable ends raw panel connector under microscope pcb side heat gun tricks cold avail nail down
10477	301	62739	2468199	2429007	gcinelli	4/23/07 8:46 PM	1.17736116E12	guess help	email service manual gcinellimsncom thanks
10477	302	62739	2471081	2445980	adamlynn322	4/27/07 7:20 AM	1.1776584E12	hp service manual	please send manual adamlynn yahoocom possible really help alot
10477	303	62739	2471704	2429007	foolsgrave	4/27/07 7:21 PM	1.17770166E12	service manual	forward copy service manual problems same thank taking time ann pastkeepyahoocom
10477	304	62739	2474935	2471704	Geekypr	5/1/07 4:24 PM	1.17803664E12	trouble	hi monitors cursed different behavior connect power cord power led blinks twice turn stay black luckily acer monitors use idea trouble
10477	305	62739	2477956	2429007	ob1shaun	5/4/07 12:24 PM	1.17828144E12	please copy service manual	thanks having problems screen slightly flashing blue light flashing same time fix rather bin help great thanks shaun
10477	306	62739	2482000	2477956	nmelk	5/8/07 7:50 PM	1.1786538E12	hp xx service manual	please send manual narekmelgmailcom possible thank
10477	307	62739	2483060	2337335	trinidad1946	5/9/07 9:53 PM	1.17874758E12	hp lcd monitor	looking service manual monitor member cnet said appreciate could send pdf file mant paying thank mail justcool coxnet thank joseph
10477	308	62739	2483062	2483060	trinidad1946	5/9/07 10:11 PM	1.17874866E12	correction	trinidad apology regard information posted repair manual need hp lcd monitor should read pay manual insted read mant paying sorry mistake thanks appreciate send email informing send repair manual pdf file several those hp lcd same problem come turn computer goes few minute later however power lite remain justcool coxnet thank
10477	309	62739	2505439	2468199	ChadTower	6/4/07 7:26 PM	1.18098516E12	service manual	could someone email service manual towergisnet thanks
10477	310	62739	2508579	1198495	riggs_ian	6/8/07 10:23 AM	1.18129818E12	help getting inside thing pavilion monitor	hi site stumbled across while looking information hp monitor apologies posting wrong place etc got bearings yet pavilion monitor gt yrs old acting dead power appears dis suspect switch itself reading few posts need check solder joints electronics designer telecoms having trouble getting inside little bugger gone hammerchisel route yet close advice getting back off thing
10477	311	62739	2508766	2508579	LH-UK-TECH	6/8/07 1:03 PM	1.18130778E12	dismantling	previously posted under lh uk tech instructions dismantling repairing variant recall stand unscrews surround levered off reasonably physically danger cracking plastic
10477	312	62739	2533775	1149171	Beluomo48	7/7/07 11:47 AM	1.18380882E12	blackouts	same problem called hp got help changed power cord monitor far problems yes blue light present old power cord picture show second went off try power cord beluomo
10477	313	62739	2581425	2429007	colbox98	9/9/07 9:42 PM	1.18937412E12	hp service repair manual	hi please beg borrow pay steal copy service manual circuit diagram hp monitor same problem everyone else unfortunately resoldering coils fixed backlight inverter power supply email colboxoptusnetcomau colboxzipcomau colbox unwiredcomau thank regards mike sheriff
10477	314	62739	2582479	2581425	Geekypr	9/11/07 9:09 AM	1.18950174E12	service manual	hi hope service manual sending useful received info please note particular manual service andor troubleshooting actual schematic believe direct child liteon monitor model liteon monitor glad find post schematic always email request good luck pd already schematic service manual liteon ata monitor
10477	315	62739	2590151	2582479	Fishman11	9/22/07 2:39 PM	1.19047194E12	hp	hp goes sleep mode turn back ideas how fix problem
10477	316	62739	2591573	1421467	Old461	9/24/07 6:21 PM	1.19065806E12	hp black fixes	reading many postings check bought thrift store didnt expect work good candidate testing found problem happen doesas electronic device cold solder joints always problem especialy items transformers larger lugs hard solder wave machine hot enough flow good rigid enough expand contract pulling loose joints apart means check arnt reflow large ones voltage regulator loosened retighten part sees alot heat screw provides connection regulator back test hooked enough black use flashlight held screen video light lcd screen doesnt produce light colors pixels bocklite must shine through flashlite demonstrate allow check actual image found mine fuse light power board glass fuse most suspect looks diode small black lead each end look magnifier removed tested bad replaced monitor works great question why blow run awhile problem elswhere could failed age power surge telling hp trouble item should step resolve loose alot cost helping power supplies plenty ebay yes laptop work long voltage isnt high running mine vdc hope helps good luck post picture his help old
10477	317	62739	2593334	2429007	tripper01	9/27/07 1:16 AM	1.19085576E12	help hp service manual	hii monitor power issues got pdf manuals could please email astra hotmailcom cheers
10477	318	62739	2602523	2593334	Geekypr	10/9/07 9:30 AM	1.1919222E12	service manual	hi please follow link seedownload service manual problems please email glad help thanks subwebaddr
10477	319	62739	2602631	744233	javcatcher	10/9/07 1:04 PM	1.19193504E12	hp monitor blackout	monitor went same direction could help warranty tough luck basically months day bought checked over computer local he couldnt diognois problem came once acts overheating problem kind dos doesnt anything software answer bird perch back patio hp real lemon
10477	320	62739	2605603	2602631	spellminder	10/13/07 3:17 AM	1.19224542E12	hp	hello anyone read leslie wongs post pictures notice inverter board doesnt little inductors torroidal inductors big rectangular inductors little yellow ones anyone else kind board tried soldering tonight luck fixing blackout problem suggestions please seriously need fix problem seriously afford buy monitor please help thank
10477	321	62739	2605703	2605603	Old461	10/13/07 7:10 AM	1.1922594E12	hp lcd blackout	fuse board near where wires plug looks diode look closely stripe remove fuse symbol board under test probably bad replace work steve
10477	322	62739	2606030	2605703	spellminder	10/13/07 2:03 PM	1.19228418E12	fuse	anything resembles fuse inverter board coils board next inverter board top solder side board thanks time
10477	323	62739	2606191	2606030	Geekypr	10/13/07 6:52 PM	1.19230152E12	fuse inverter board	flip over inverter board coils close con power connector something identified should fuse check continuity post photo camera strike
10477	324	62739	2606206	2606191	spellminder	10/13/07 7:04 PM	1.19230224E12	fuse	thanx talking how heck supposed replace little thing radio shcak sell such little thing mean ridiculously small
10477	325	62739	2606209	2606206	spellminder	10/13/07 7:12 PM	1.19230272E12	continuity confirmed	placed ohmeter fuse continuity confirmed continuity through coils simply weird same symptoms exactly others described intemittent blackout fix problem via method resoldering
10477	326	62739	2606211	2606209	spellminder	10/13/07 7:41 PM	1.19230446E12	con	someone please explain continuity should con component ie input jack inverter board ac adapter testing three prongs continuity ans observing sort intermittent continuity consistent intermitent blackout moitor monitor blacks vaguely screen must mean current getting through yet losing complete continuity con jack confused wondering found problem wasting time cause said earlier resoldered everything far fixed problem thanks who helped
10477	327	62739	2606212	2606209	Old461	10/13/07 7:51 PM	1.19230506E12	blackout	getting ohms fuse probably good read anything else probably reading back through circut fuse try unsoldering end lifting slightly test read fuse steve
10477	328	62739	2606214	2606212	spellminder	10/13/07 8:09 PM	1.19230614E12	fuse con	ohms fuse con connector reading approx ohms between prongsany idea means prongs oriented triangal manner where prongs parallel perpendicular parallel onesi reading ohms across parallel ones across parallel closest middle board perpendicular how interpret
10477	329	62739	2606259	2606214	Old461	10/13/07 10:14 PM	1.19231364E12	fuse con	open mine check office monday respond once faint image video working back lighting put flashlight screen steve saet verizonnet
10477	330	62739	2606286	2606259	spellminder	10/13/07 10:46 PM	1.19231556E12	thanx	thank time sir greatly appreciate
10477	331	62739	2645337	2468198	acstechee	12/4/07 7:44 AM	1.19675424E12	hp pavilion service manual	could someone please send service manual hp pavilion thanks
10477	332	62739	2661571	2605603	agarza91	12/24/07 10:19 AM	1.19849154E12	hp possible solution resolder	same monitor could tell removed old solder last year corrected problem using wongs procedure instead resolder removed old solder four coil connections resolder four coils connections circuit board stripping solution clean connections prior soldering soldering solution anything remove excess flux board procedure worked year year worked far
10477	333	62739	2663434	2429007	moghalm	12/27/07 8:05 AM	1.1987427E12	hp lcd monitor	display goes blank minutes each time turn how fix thanks
10477	334	62739	2663438	2429007	moghalm	12/27/07 8:14 AM	1.19874324E12	service manual hp	please send service manual black problem above lcd email moghalmverizonnet thanks
10477	335	62739	2677421	1263170	adzaburnz	1/12/08 8:58 AM	1.20012828E12	pavillion black problem	unbelivable followed instructions word word problem went looking breaks soldering seemed fine vigorously studying least mins decided reheat old solder spots seconds each instructed put back together hoping difference despite being bit novice sort repair incredibly easy hooked turned amazed good thank lhuktech saved few hundred dollars screw those fen hp dogs
10477	336	62739	2678554	744233	Nspektor	1/13/08 7:55 PM	1.2002541E12	hp blackout	resoldering help monitor workingfor awhile long apart soldering replace junk transistors board transistors referring pushpulls before xformers output ccfls survive cold solder joints torroidal coils overheat fail few seconds replace transistors higher rating resolder toroids monitor should work perfect repairing junk boards years never return done
10477	337	62739	2679676	2677421	GTO Judge	1/15/08 8:20 AM	1.2003852E12	gromits fix worked	monitor given brother he said didnt work heck looked hp pavilion problems happened upon thread took minutes fix working great thanks gromit lewong
10477	338	62739	2683662	2677421	javcatcher	1/19/08 7:06 PM	1.20076956E12	hp lhuktech fix worked	information posted how repair monitor given computer back house went around hp basically told cost fix their screw cnet sent email last week went dug monitor garage tore per instructions lhuktech step step were easy follow however wing small coils were yellow casings were copper coils never solder iron tip probably big monitor connected computer instead collecting dust garage months hads sitting thanks ton agree adzaburnz hp needs back their product
10477	339	62739	2692181	2678554	Wired500	1/29/08 8:04 PM	1.20163704E12	transistors	could give transistor numbers hp monitors replace please tried find info come blank every time thanks please reply wired junocom
10477	340	62739	2704328	2692181	wyattzzz	2/13/08 10:28 PM	1.20294168E12	re transistors	anyone having same issue having trouble finding replacement transistors try searching transistor wwwexpressebaycom ones listed were actually listing title searching purposes anyway were cents each plus shipping having exact issue monitor got free tore apart noticed transistors hole burned didnt notice cold solder joints ordered parts few minutes ago hopefully solve problem less
10477	341	62739	2753198	1255771	Intimind8ter	4/16/08 11:11 PM	1.20838746E12	hp lcd monitor blackout seconds works	hey tell skepitcal work instructions say backlight board didnt look bad cold sodder joints went over magnifer glass entire day looking joints none seemed bad went ahead resoddered coils enough fixed problem take away day looked bad joints took hour really job friend gave didnt work really cool lcd free thanks who helped disscussion really thank enough jack aka wannahocalugie
10477	342	62739	2754848	2753198	jtrugby	4/19/08 7:12 AM	1.20858912E12	pictures	tried solder joints he same success anyone pictures needs soldered doing right ones
10477	343	62739	2754866	744233	R. Proffitt	4/19/08 7:29 AM	1.20859014E12	updated web link how repair	read subwebaddr
10477	344	62739	2770608	1636110	oemraw	5/10/08 2:32 PM	1.21042992E12	hp burn	called hp hp monitor going black their workers told flash flashlight screen flashed flashlight saw desktop worker told lcd monitor burned thanks hp giving tip never found
10477	345	62739	2793650	1132759	giddyupgo6	6/16/08 10:47 PM	1.21365642E12	hp flat screen monitor	experience hp suggest seek company monitor lasted months went blank possible checks called hp lot prompts over phone ended someone india who couldnt speak english finally told warranty days options mail pay hp check buy decide deal sincerely hope luck
10477	346	62739	2794364	1671183	javcatcher	6/18/08 9:55 AM	1.2137829E12	fixed problemno	same thing thought monitor back lasted month temperature default coil piece junk plan looking using monitor base really disappointed time tell maybe mac systemgtgtgtgtgtgtgt
10477	347	62739	2801713	744233	andyoddjob	6/29/08 1:17 AM	1.21470222E12	hp pavilion tft monitor blackout factory reset	given faulty someone warranty help hp bought brand replacement same problem everyone else seems having press button came second went blank press button turn same happened managed through trying time pressing quickly press menu go down factory settings press select go down yes press select reset factory settings seems working okay week how long last goes try resoldering guess wont buying hp products part expensive system help anyone else anyone tries gets monitor back running please let best
10477	348	62739	2802976	2754848	pmessina	6/30/08 9:30 PM	1.2148614E12	yes someone post link pictures	pictures were looking inside monitor willing open try need looking
10477	349	62739	2827897	1238996	wirecutter	8/6/08 9:44 AM	1.21801584E12	monitor repair easy	throw away dark send seriously though problem follows transformers inductors power supply board enamel insulation most magnet wire insulated enamel yeah paint problem need solder wires enamel should cleaned off display made someone didnt good job preparing transformer inductor wires prior soldering solder joints fail anyone internet access little mechanical skill opening display soldering skills fix instructions over net id willing resolder board ill take monitor put back done easy
10477	350	62739	2834995	2606191	threebobdee	8/16/08 2:37 AM	1.21885422E12	fuse	anybody else help fuse find where buyor type fuse fast slow blow resetable sizeseriespart number believe chip fuse info complete newbie post ever forumplease excuse going wrong way many thanks threebobdee
10477	351	62739	2835134	2834995	R. Proffitt	8/16/08 6:42 AM	1.21886892E12	fast slow blow resetable	resettable wouldnt replace id use fast blow agc exact replacement jury rig need friend solder iron burns their hands
10477	352	62739	2838549	2835134	threebobdee	8/20/08 1:50 PM	1.2192402E12	hp pavilion tft monitor blackout fuse	thanks proffitt reply posted back last sunday must messed somewhere somehow missing said before comps replying forums problem seems misunderstanding mentioned avg googled found large glass fuses mention jury rig term familiar take mean modify way pretty fair solder irons confident job need identify fuse find someone who supplies retail quantities fuse inquestion mm mm mm size aprox found solder side inverter board white ceramic silver ends brick shaped stamped ever thought solder top old due how small ok said before biggest problem identifying finding retail outlet supply info fuse comes forum thread post number geekypr never went anywhere due being problem their casebut problem case geekypr anyone help small way please grateful thanks threebobdee
10477	353	62739	2838560	2838549	R. Proffitt	8/20/08 2:03 PM	1.21924098E12	wrote agc	old terminology passing ages let define jury rig mean attach wire end fuse where end old fuse repeat side hope clarifies vendors include radio shack jameco frys digikey etc bob
10477	354	62739	2839312	2838560	threebobdee	8/21/08 3:04 PM	1.21933104E12	hp pavilion tft monitor blackout fuse	hello bob thanks swift reply fully understand jury rig wont forget hurry cautious man please bear while draw picture how solution problem mm mm glass fast fuse diffrence fuseholder bond component side board wire offending fuse solder side board hey presto problem solved hopefully thats reading right sorry being long winded posts please post back confirm right wrongappreciate time help many thanks threebobdee
10477	355	62739	2839351	2839312	R. Proffitt	8/21/08 4:21 PM	1.21933566E12	understood	sorry craft words accepted method find exact replacement
10477	356	62739	2839362	2839351	threebobdee	8/21/08 4:40 PM	1.2193368E12	hp pavilion tft monitor blackout fuse	hello bob yes yes yes many thanks thanks thanks off bed sleep easy back complete job let how got happy thankful threebobdee
10477	357	62739	2844731	2839351	threebobdee	8/28/08 1:44 PM	1.21993104E12	hp pavilion tft monitor blackout fuse	thanks bob job done dusted afternoonno burnstook half hoursa job best threebobdee
10477	358	62739	2844750	2839351	R. Proffitt	8/28/08 1:57 PM	1.21993182E12	nt thanks update	NIL
10477	359	62739	2847062	1036563	MarkFlax	9/1/08 1:57 AM	1.22023422E12	ameenaskar deleting post	received request delete post difficult people replied post delete yours theirs deleted automatically however asked our forum admin remove email address post giving email addresses forums recommended internet form bots robots regularly trawl forums visible email addresses spammed hope helps mark
10477	360	62739	2855649	1263170	cheekuelee	9/11/08 12:31 PM	1.22113626E12	notebook monitor black	laptop blacked wondering knew how fix thanks
10477	361	62739	2855709	2855649	R. Proffitt	9/11/08 1:43 PM	1.22114058E12	bury pleas	thread nearly posts
10477	362	62739	2874463	2590151	Luto Lopez	10/5/08 9:09 AM	1.22319774E12	hp pavilion monitor	display goes blank seconds turned off same problem second display goes blank how fix thanks spanish mi monitor al encenderlo funciona segundos luego la pantalla se blanquea entonces lo apago enciendo de nuevo sucede el mismo problema despues de segundos se vuelve blanquear si alguien puede ayudarme gracias
10477	363	62739	2892300	2827897	bababui619	10/26/08 5:38 PM	1.22504268E12	hello	having similar problem hp monitor plugged monitor electrical outlet led power supply becomes dim blinks monitor itself always remains dark blue power button shuts off seconds being turned disassembled monitor took examined power board found loose solder joints described people fix suggestions how single problem thanks
10477	364	62739	2893777	2429007	wcs.home	10/28/08 9:59 AM	1.22518794E12	manual	hi need copy manual circuit diagram layouts help please email methanks martin
10477	365	62739	2894071	2892300	threebobdee	10/28/08 3:09 PM	1.22520654E12	easy fix	worth starting resoldering four big copper coils pboard look okthey seem problemthey were mine earlier year check site subwebaddr should help threebobdee
10477	366	62739	2902022	744233	Perky Pants	11/7/08 5:35 AM	1.2260361E12	same problem model	hi few months ago exactly same symptoms displayed almost years service heavy usage desktop faintly backlight goes couple seconds doing offon thing found thread wanting monitor backup crt figured should try fixes tried screen resolutions power cord things dice opened inspected capaciters none leaking burst found suspect solder spot heatedadded solder dice went kind crazy soldered lot connections nothing soldering part problem inverters coils inverter board three boards instead compounds problem far left looked back brown aluminum heatsinks ac adapter cord plugs toroidal copperbound thingie square boxlike thingie sideways cylinders wrapped copper plus course lot stuff middle theres green board processing chip connects video adapters connection screen theres light beige board four plugin connectors screen inverter board horizontal cylinder thingies wrapped copper others look almost same larger rectangular boxlike things where copper wrapped vertically rest black looks long box lot leads larger boards connect each cord going past green board act single inverter board power supply given going try suck solder didnt before case heating adding touch solder didnt really board copper thingies analogous those wongs pictures none components horizontal doughnuts laced wire board anyone could tell ones likely culprit maybe surrounding objects should look order figure where culprits sorry couldnt post link pictures boards find examples mine anywhere digital camera good luck everyone
10477	367	62739	2902026	2902022	Perky Pants	11/7/08 5:40 AM	1.2260364E12	correction	oops sorry post long four thingies wrapped copper beige board actually vertical cylinders rather horizontal makes difference look kind same labels top different base kind silicone attaching something something ignorant
10477	368	62739	2922604	2445980	chispita11	12/7/08 12:06 AM	1.22860836E12	request service manual hp monitor	hello mind could please send repair manual hp monitor thanks lot
10477	369	62739	2922867	2922604	Geekypr	12/7/08 10:47 AM	1.22864682E12	tech manua	hi please relpy email jmjconelinkprnet copy manual note schematic technical manual hope hear youu soon thanks
10477	370	62739	2947526	2428839	Unknown	1/9/09 9:49 AM	1.23149454E12	three hp problem	hi three fine problem go blank few seconds anyone interested glad sell bobnh
10477	371	62739	2949833	2947526	rentonvisalia	1/11/09 10:48 PM	1.23171408E12	hp monitor	how guy selling monitors anyone figure problem yet fixed several others past due faulty caps bad solder joints seeing enlarged blown caps wondering problem ones please email rentonallengmail answer schematic might help thank
10477	372	62739	2950119	2429007	youlovejoe	1/12/09 8:45 AM	1.2317499E12	email manual	need service manual hp lcd please thank ill design somthing free joe
10477	373	62739	2959751	1278560	raydoncort	1/22/09 12:31 PM	1.23262746E12	resolder	able resolder coils how open unit flat screen
10477	374	62739	2959802	2959751	threebobdee	1/22/09 12:59 PM	1.23262914E12	resolder	hello try subwebaddr good luck bob
10477	375	62739	2972195	1246502	vpytko	2/5/09 3:37 PM	1.23384822E12	cold solder coils hp	savvy opened case located mannequin key board appears black square items five solder points each chance need resolder go further under lcd panel
10477	376	62739	2972286	2972195	Old461	2/5/09 5:47 PM	1.23385602E12	several areas check	remove lcd board back transformes left need resoulder transistors larger ones go bad alotthey power transformers fuse board labeled fs cold bad fund cause same problem item stated domino effect fix once probably good proper power supply should volts dc least amps current transistors power supplies obtained ebay reasonable price steve
10477	377	62739	2972303	2972286	vpytko	2/5/09 6:07 PM	1.23385722E12	several areas check	thanksit discard worry screw
10477	378	62739	2973447	2972303	threebobdee	2/7/09 6:24 AM	1.23398784E12	several areas check	hello got link help subwebaddr easy fix shouldnt problem link got links help dismantle lcdect plus photos good luck bobdee
10477	379	62739	2973664	2973447	vpytko	2/7/09 1:10 PM	1.2340122E12	hp repair info	thanks victor
10477	380	62739	2992395	2678554	renshaww	3/1/09 8:43 PM	1.23594018E12	burnt inverter board lcd monitor	issues discussing caused problem calling hp tomorrow done monitor cnc serial number series inverter board same pictures power supply amp resoldering coils need replace burnt badly numbers gone anyone provide info greatly appreciated
10477	381	62739	2994303	2992395	threebobdee	3/4/09 2:56 AM	1.23613536E12	burnt transistor	hello renshaww look board four transistors row front behind big blue capacitors same numbers number off transistors number possibly easily off ebaythey cheap problems repost back let us bob
10477	382	62739	3003243	2950119	Wired500	3/15/09 3:51 PM	1.23713226E12	service manual	finally found correct service manual monitor info ever need repair monitors send email wired junocom send charge thanks
10477	383	62739	3017185	2994303	renshaww	4/3/09 10:20 AM	1.238754E12	burnt transistor	thank help electronics store close check transistor
10477	384	62739	3017233	3017185	Wired500	4/3/09 10:41 AM	1.23875526E12	service manual	renshaww complete service manual monitor anyone else send mail wired junocom good contacts parts monitor too wired
10477	385	62739	3017276	3017185	threebobdee	4/3/09 12:12 PM	1.23876072E12	sc	replace vice versa whenever gone recomended replace pair come surface mount through hole take note ordering good luck bob
10477	386	62739	3018562	3017233	mresman2009	4/5/09 9:50 AM	1.238925E12	please send manual hp monitor	monitor similiar thanks
10477	387	62739	3018586	3018562	Wired500	4/5/09 10:18 AM	1.23892668E12	NIL	inverter part number printed sticker board number printed board itself last numbers vary part number main board kshhp number printed board hope info helps send manual anyway send mail
10477	388	62739	3031823	2296719	Randyincv	4/24/09 3:53 PM	1.24058838E12	repair tips	ok few comments monitor hp sells outsourced meaning someone else asia makes hp hp sells alone dell manufacturers same every computer company products develop similar faults saying company fallacy deal people swear theyll never send dell penny company immune work industry believe sad reality hp monitors suffer couple different problems experience software drivers refresh rates etc strictly hardware problem inverter power supply fails provides high voltage cold cathode fluorescent tubes surround lcd toroid coils board were hand soldered inferior solder seen too many times coming asia reworked several monitors totally remove solder solderwick connection points toroids rather add solder scraping wire toroids where protrudes through circuit board solder removal ensures connection take down until copper leave scrapings board ensures solid electrical connection enamel copper wire removed resolder connections using fresh high quality rosin solder use lighted magnifier look cold solder joints dull grey shine remove old solder replace joints fresh high quality solder replace driver transistors sc apiece buy ebay should fix problem majority time comes goes right back off issue replace ac adapter recommend buying aftermarket version theyre robust tend fail power spikes replaced ac adapter ones hp lcd monitor adapter puts over amps current part number pscv dell uses same model number same vendor once redid solder replaced transistors replaced ac adapter zero problems monitors rebuilt job technicians component level skills unfortunate whoever sourcing vendor monitor didnt use solder place wonder how business hp lost over issue hard determine how many monitors discarded could repaired whole thing saddens weve devolved such disposable society questions repair feel free contact monitor works works bright remarakably clear image
10477	389	62739	3070954	2827897	karkovjm613	6/30/09 8:15 AM	1.2463497E12	bad	offer table fix got itd cheaper send buy stuff need fix
10477	390	62739	3122102	2754866	daryoushn	9/7/09 9:31 PM	1.25235906E12	hp pavilion monitor model input signals	inverter board burnt replaced signal computers why
10477	391	62739	3148464	1878511	mrmudge	10/12/09 9:32 PM	1.25538312E12	right power supply	bought model monitor same problem suddenly going black going power save mode google search found checked power cord enough original hp power cord cheap chinese extra hp power cord monitor runs fine saved hours aggravation thank taking time post years later post
10477	392	62739	3149366	2683662	sarraceniac	10/14/09 3:40 AM	1.2554916E12	hp works	years given use server old saying looking gift horses mouth lasted week died death found thread october got going probs thanks techies us softies
10477	393	62739	3168898	744233	R. Proffitt	11/7/09 4:38 AM	1.25756868E12	navigation error thread locking	hope find discussion useful discussion busted closed entries
