14103	0	501210	5004798	NR	Lee Koo (ADMIN)	10/8/10 12:36 PM	1.28654136E12	buying advice final computer laptop allinone desktop	question buying advice final computer laptop allinone desktop years old retire small pension shopping final computer budget around fancied aesthetics allinone desktop replacement seem poor value money wellspecified laptop alternatives keen tower replacement wires everywhere keen novice photographervideographer good equipment lots digital pictures hd video files editing retirement concern laptop life span might quite limited heat generated confined spaces familiar technical aspects cpus graphic cards latest intel chips wonder were compromise specifications go aesthetics allinone specifications members suggest meet photographic videoediting requirements without need overkill yet keep waiting ages while computer processing large files best wishes thank submitted brian riyadh saudi arabia featured member answers started please read advice suggestions our members contributed question laptops convenient submitted philb subwebaddr depends submitted estefan subwebaddr last computer submitted happy usa subwebaddr youve put yourself between rock hard space submitted charleswsheets subwebaddr thank who contributed additional feedback opinions suggestions brian please click reply link below submit away please detailed possible answers thanks
14103	1	501210	5004912	5004798	triplet grandmom	10/8/10 5:22 PM	1.28655852E12	final answer	apple macbook pro
14103	2	501210	5004913	5004798	nclark84	10/8/10 5:23 PM	1.28655858E12	depends	really ends depending how use computer field office pseudoprofessional photographer myself use laptop editing chose laptop technically notebook over desktop could take field onthefly editing clients locations use macbook lightroom aperture photoshop cs editing issues last three years bought notebook own pc built few years ago though mostly collects dust purchased macbook portable able handle heat generated components sold most portable computers multiplecore processors actually generate less heat highspeed single core processor turn unused cores off idle bottom computer hot touch doesnt mean too hot work most chips work comfortably went allinone id shoot range ghz least cores preferably gb ram video card isnt important dealing stills video files rather rendering complicated cg video those specs should cooking good luck apple dell vostro lenovo allinones
14103	3	501210	5004914	5004798	antmeal	10/8/10 5:25 PM	1.2865587E12	consider	suggest consider purchasing macbook pro laptop computers operating under windows vista mac osx snow leopard years bought mac never given scrap trouble excellent youre photography windows bought take overseas july nightmare
14103	4	501210	5004925	5004798	philb1701	10/8/10 5:26 PM	1.28655876E12	laptops convenient	paraphrase bardto laptop laptop question laptops often good excellent choice power convenience especially going mobile extent unfortunately laptops end result compromises power flexibility maintain portability desktops always powerful versatile accommodate larger screen hard drive options ram power supplycooling options wont fit little box biggest questions need ask yourself going place place wantneed take computer size screen options laptop assuming hang external monitor answer yes questions means laptop butif answer either questions means least consider desktop otherwise end trying portable job ways might able fully handle worth desktop laptop budget could easily save files external hard drive virtually eliminate problem having files regardless machine front need deal software licensing issues minor problem worst gartner group consistently reports industry replacement rate years desktops months laptops hope helps form fashion please note recommend pc vs mac stage game critical question case mine macs mahalo pb
14103	5	501210	5004940	5004798	jaimeh1	10/8/10 5:34 PM	1.28655924E12	suggested computer	jr electronics sony vpcl fxr sale free shipping retired bought pleased fast appears things their phone sales jrcom good luck jaime
14103	6	501210	5004935	5004798	marklynnwilliams	10/8/10 5:39 PM	1.28655954E12	need spend money	brian congratulations retirement st portability isnt issue definitely desktop bang buck easier cheaper upgrade need arises right question whether allinone really necessary personally stay away sounds many devices hook computer cameras video recorders scanners etc tower lots connectivity options sounds should looking without getting too technical thing should focus mostly ram midrange computer should able handle look something around gig ddr ram work hd video good video card must good news computer buy doesnt come good easy upgrade desktop next should windows mac money object mac probably suited video editing superior software over windows windows handle fine lower cost advice spend around decent computer take rest money save upgrades later down line enjoy
14103	7	501210	5004936	5004798	cooldrywit	10/8/10 5:40 PM	1.2865596E12	buying advice final computer	hello bryan reason should consider laptop need use computer outside home based wrote recommendation apple imac ghz fast core processor gb ram sells apple store leave buy applecare extended warranty large capacity external desktop firewire drive store video files editing imac perfect choice design high performance specifications extremely easy use comes built video editing program called imovie built image program called iphoto need sophisticated software almost higher end video photo editing software packages compatible too find local apple store reseller try staff should able answer questions good luck let post photos videos online
14103	8	501210	5004938	5004798	qingdaodude	10/8/10 5:41 PM	1.28655966E12	too	bit behind alreadyo far found same basic landscape report cooling bases laptops usbs infinite possiblities present themselves friend whos interests similar uses dell allinone six gb external hds friend uses desktop replacement id mention brand many similar doesnt seem fair prefers cloud storage over clutter hds his desktop looking amazing combination powerspeedimage reproductionflexibility ease use keyboard touch size etc et al eager hear answers good luck us
14103	9	501210	5004929	5004798	jdonnellatduedu	10/8/10 5:43 PM	1.28655978E12	final computer	suggest final computer realize money easily buy least probably three good computers luck should take assuming serious gaming photo editing huge spreadsheets cpu graphics processor intensive tasks reason spend close machine today say someone who mid until past year firm believer motto computer really web access word processing serious stuff booklength manuscripts email ordinary spreadsheets ordinary photo editing similar sorts things should quite happy computer ranges price absolute max desktop last bit longer obviously correct certainly should consideration question work house sounds clean simplicity laptop attractive go choose size choices range inch netbook inch behemoth almost certainly leave fixed desk most time issues really aesthetics readabilityusability fact smallest boxes usually somewhat less computing power ignoring portability battery life seem important surprised pleasantly size hard drives machines unless truly immense music photo collections adequate really need half terabyte storage external drive handle easily cheaply great laptops range blow away five year old machine passed relative who uses happily look netbooks how go wrong six months ago part wanted portability long battery life happy suspect probably going looking inch machines where price range suspect really doesnt matter rather lots good choices good brand reputable supplier preferably having serious sale given saudi arabia availablity local warranty support actually single most important consideration put away rest money dies same thing keep range doable us time figuring five years reasonable average life computer quality should working away nice machine assure though spend mid dissatisfied
14103	10	501210	5004950	5004798	maggiedev	10/8/10 5:47 PM	1.28656002E12	laptop	gone using laptops desktop take too room too cumbersome take repairs fact cannot move room room asus republic gamers grandson remove gaming partition whole computer photography lot memory run printers anything else choose put without problem problem overheating easy fix put chill pad under longer problem chill pad particular size laptop worth every penny smokers our home dogs cats take laptop twice per year squeaky clean absolutely problems never go back desktop room take th laptop others going strong gave family members oldest years old
14103	11	501210	5004960	5004798	Xphell	10/8/10 5:53 PM	1.28656038E12	choosing desk lap	absolutely question aboutdefently desctop good graphic card high cpy recommended photo editing adobe photoshop genuineolder version course opinion little experience forget good aniviruslike kaspersky
14103	12	501210	5004961	5004798	kjlind	10/8/10 6:01 PM	1.28656086E12	laptop	should spend somewhere around laptop great computer probably printer hp everything got under dell laptop approximately six seven years works fine keep grandchildren who love games work xp probably enough time left buy computers keep updates computer buy
14103	13	501210	5004942	5004798	gandhawk	10/8/10 6:02 PM	1.28656092E12	buying advice final computer	old probably live through least windows updates laptop desktop depend mobility requirements need work away home desktop otherwise laptop how should spend buy good quality desktop laptop photo printer around previously mentioned ram ram ram too save next computerupgrade specialized software years quite bit change computer hardware computer obsolete important let joker best buy sell need decent computer research software purchase price functionality ease use varies tremendously
14103	14	501210	5004952	5004798	Kingdaddy2000	10/8/10 6:14 PM	1.28656164E12	quad core imac	amazoncom taxes free day shipping amazon prime bought few months ago ebay bingcom deal where could save off price searching bingcom anyhow mine came year applecare beat described sounds really need travel mbp typing convention gaylord national hotel maryland quad core imac back office however access files use dropbox cloud storage means access ipad iphone desktop quad core imac allinone give beautiful display edit videos photos pleasure use live desktop model could actually cut cost almost half use savings increase ram least gb beneficial especially youre running multiple programs rest savings could buy low end ipad use dropbox show off photos guess recommendation really understand needs need portability laptop truly believe best imac gb ipad way editing etc allinone desktop show everything off ipad definitely opinion best way go havent tried ipad please try before decision
14103	15	501210	5004953	5004798	mariohummer	10/8/10 6:15 PM	1.2865617E12	brainer mac	brian brainer macbook pro either buy display buy external hd monitor within budget bad either somewhat over specified amount oh yes forget mac happy rest youf life antonio
14103	16	501210	5004956	5004942	gandhawk	10/8/10 6:19 PM	1.28656194E12	additional	buy name brand extended warrantee
14103	17	501210	5004946	5004798	E-DudeInDMajor	10/8/10 6:21 PM	1.28656206E12	laptop aka notebook considerations	before purchase long term perhaps consider things laptop notebook computers overheat ventilation fails gets clogged etc disassemble blow dust laptop computer difficult andor expensive desktop computer simpleremove cover vacuum andor blow dust put back together laptop computer batteries eventually die cases suitable replacement battery found need similarly small power converter ac dc most portable computers use die sometimes connector goes computer breaks expensive repair power converters go obsolete difficult impossible replace portable computers suffer internal file storage failure often desktop computers base statement number each come shop every week failures portable computers outnumber desktop computer failures least internal disk fail always backups digital imaging storage back files cddvd andor least external storage devices computer suffers complete failure image files lost good luck purchase
14103	18	501210	5004969	5004798	jrhd437	10/8/10 6:34 PM	1.28656284E12	importantly	while id love give best computer advice ever probably best qualified say hope wont really last computer could easily live decades longer computer however advanced good far brain thank mental activity advance years too certainly mac last computer reason being harder limited upgrade longevity always best desktop go intel core processor mention gaming anything moderate video card help photo video course bit computer ddr ram benificial choosing specific processor best afford consider whether software applications support threading how upgrading software listen common sense expect long life certainly outlive next computer
14103	19	501210	5004974	5004798	happy2000usa	10/8/10 6:51 PM	1.28656386E12	last computer	years ago helped dad buy his last computer he turned celebrated buying cardinal rules buying computer rule day buy obsolete daily technical advances rule buy powerful machine software programmers work hard need ram chip speed larger hard drive correct concern laptop cooling though multicore processors seem run cooler buy cooling pad help son computer engineer keep large books freezer set laptop most cooling pads run ac usb portability away electrical outlet biggest problem laptop limited expansion options wires youll care external hard drive youll probably need photography were same age imagine youll wan large monitor supplement laptop screen bought last computer went through same dilemma seriously consider allinone limited expansion though intrigued laptop configuration detachable screen instead price decent machines being reasonable opted desktop primary machine along laptop take traveling modern processors quad core id opt gb ddr ram hopefully machine expansion slots should need bought reasonably basic desktop open bays room expansion added second hard drive video card best investment upgrade inch lcd monitor thats easier aged eyes didnt throw away old monitor installed second display sharing love wiring installed pci wireless card through wireless router gives access internet printer wireless card gives access though home lan laptop way transfer files laptop large desktop hard drive traveling several programs available access home computer laptop transfer files generally use usb memory stick online storage keep laptop storage reasonable level son uses inch portable hard drive runs usb power back his laptop files conclusion go separate machines got discount buying same company single machine id stick desktop expand wireless hard drive really good monitor
14103	20	501210	5004992	5004798	SinbadSailor	10/8/10 6:57 PM	1.28656422E12	final computerallinone desktop should job	facing same questions looking hp touchscreen works built screen unit terrific idea touchscreen offers access info entertainment social networks hp website hp touchsmart zoom photos videos plus edit touch finger enjoy dvds large highdefinition display clear crisp sound video chat using integrated webcam microphone pretty describes saw demonstrated shopping network us handle photos long click shutter hp laptops family going wait christmas deals offered before final decision good luck jime wisconsin usa
14103	21	501210	5004978	5004798	geomurray	10/8/10 7:09 PM	1.28656494E12	final computer	hello brian present good question many people situation working computers years consulting things consider buying computer going travel size screen need laptops market good life span need replace battery before replacing machine good price watch sales brands years found emachine gateway poor quality forms stay brand name hp compaq dell etc laptop screen sizes go desk top go way find works great everyone different buy computers preference paid consult happy hunting
14103	22	501210	5004994	5004798	Wingswalk	10/8/10 7:12 PM	1.28656512E12	buying advice final computer laptop allinone desk	brian recently retired using pcs years switched macbook pro years convinced best lots digital pictures love edit dabble video editing iphoto imovie come standard load macbook pro easy use offer power handle most editing video development plus slideshows breeze couple itunes previous user adobe photoshop full version adobe premiere full version reason use mac iphoto imovie handle most needs however adobe products available apple mac apple support best good luck paul
14103	23	501210	5004996	5004992	geomurray	10/8/10 7:14 PM	1.28656524E12	reply reply	forgot mention should stay away macs apple tech support terrible those machines way over priced
14103	24	501210	5004998	5004798	needtolearn	10/8/10 7:36 PM	1.28656656E12	similar question	currently old windows xp desktop ghz processor slow hardrive external hardrive gmy free space limited gb function os clutter hd amateur yet avid photographer strong photo editing retiring yet computer savvy terms confused over vs stand alone desktopslaptops windows vs mac overwhelmed termsdual processors intel vs intel windows alternative desktop version portability important concern desktops laptops upgradinghow upgrade imac without expensive add ons upgraded current desktop physicall installing ram hard drive budget lower ie wish upgrade camera digital slr however love imac larger monitorease use endure transition windows mac mac why double price windows authorized retailer says superior qualityis actually superior windows real benefit over xp least ram least hd follow thread interest
14103	25	501210	5005020	5004798	cglass	10/8/10 7:47 PM	1.28656722E12	imac rocks	id imacget fastest fits budget great photographs laptop youll big screen work travel lot go ahead go macbook add keyboard monitor stays put good luck
14103	26	501210	5005022	5004798	dustytrails	10/8/10 7:54 PM	1.28656764E12	retirement computer	secure manhood blow screen macbook aka apple were young bunch software years old need biggest screen laptop going blinder each year buy dell screen unless swing bigger screen intel icore mhz range buy gigs memory minimum doing video editing need gig video card photoshop software budget bought icore mhz processor could last years screen too small video editing enjoy retirement
14103	27	501210	5005005	5004798	brandonstengel	10/8/10 8:21 PM	1.28656926E12	last computer ever need	alienware need long battery time consider either work needs build alienwarecom go em lights camera action literally youll whe let back how best brandon nashville tn
14103	28	501210	5005006	5004798	charleswsheets	10/8/10 8:22 PM	1.28656932E12	youve pur yourself between rock hard space	hi brian question brings interesting issues buying last computer conundrum challenging answer too difficult agree assessment desktop replacements biggest difficulty getting serviced need service lose entire computing capability until fix upgradable regard ram graphics capabilities recommend unless specific need mobile computer wouldnt recommend laptop either number laptops price range disappointed graphics handling capabilities higher end models experience high end laptop repair thing go video card youll need trained repairman fix cheap either hand easily find equipped desktop fulfill needs full measure within budget shop carefully should able find vendor who fill nice lion li case intel motherboard cpu intel gb memory gtx graphics card nice video editing power supply top off tb hdd windows pro almost understand aversion wires everywhere problem id recommend look high end wireless keyboardmouse options logitech makes mx revolution slick wireless setup good computer throw monitor wireless card youll budget wires youll deal power cord hdmi cord monitor pc everything else wireless course many options available examine remember important tips system meet needs video editing youll need powerful graphics ram fit requirement something stops working display power supply motherboard etc how long without computer how matter last computer going meet needs future remember ram cpus displays video cards easily upgraded desktop laptop wish quest choosing last computer youll ever buy forum plenty info hope helped thought process best luck
14103	29	501210	5005017	5004798	riorio1781	10/8/10 8:28 PM	1.28656968E12	buy mac	multiple computers over years recently purchased windows acer laptop pc own imac desktop wanted machine windows sorry five months start turn says updating files loading windows goes blank mouse cursor tried loading repair disc tried starting safe mode tried booting cdrom etc called acer support called microsoft help without paying support windows problem similar problems versions windows through years imac yearsi never problem anything including os gave windows shot blew never sincerely ralph ioriobrooklyn ny
14103	30	501210	5005040	5004798	lynpesen	10/8/10 8:39 PM	1.28657034E12	laptop	before received laptop bought platform keep cool settings laptop runs beautifully keep screen cooler sit laptop slightly forward fans blowing right screen hope helps someone
14103	31	501210	5005035	5005040	Al Fitz	10/8/10 8:48 PM	1.28657088E12	laptop desktop	year old cents worth go laptop portable compact priced right unless money away buy apple things should look maximum internal memory largest screen happy decision
14103	32	501210	5005029	5004798	Ramesh Goradia	10/8/10 9:14 PM	1.28657244E12	inch hp toshiba laptop computer	hello brian suggest buy large display inch laptopsuch hp dv toshiba inch laptop independent graphics gddr memory atleast mb give good resolution photoediting work heating critical problemmoreover sound quality displaylanwlanwebcam etc inclusive features renders unit truly versatile daily work especially suitable photo composing work etcalso suggestwireless mouse keyboard combo go should serve purpose ramesh goradia mumbai india
14103	33	501210	5005051	5004798	chickeee	10/8/10 9:21 PM	1.28657286E12	reduce budget	photographer focus high longevity boardcpu lga desktop add storage need save money later upgrades tb five hd gets cheaper every year
14103	34	501210	5005038	5005017	pdnRPH	10/8/10 9:24 PM	1.28657304E12	laptop laptop desk cushions costco	buy macpro intel amd windows bought acer quad amd always intel man blow desktop laptop away released oct own acer year old great wifi sit lap travel come home anything same age experience knowledge recommend
14103	35	501210	5005039	5004798	naturecare321	10/8/10 9:33 PM	1.28657358E12	laptop core intel processor toshiba	requirement toshiba satllite laptop core processor latest working trading office help buy whole sale pricesend email ill send configeration image laptop quotation domestic shop let youi ican usd cif
14103	36	501210	5005056	5004798	pmcheng1707	10/8/10 9:57 PM	1.28657502E12	buying advice final computer laptop allinone desk	apple macbook pro cause bought macbook pro march year should started macbook earlier go apple store try take look applecom based budget work value
14103	37	501210	5005071	5004912	r2v2	10/8/10 10:18 PM	1.28657628E12	weigh options	go mac store check try imac monitor consider cpu compare pc hd monitor hot graphics card most graphics software each already using software stay invest printer email download pics walmart store prints digital photos tasting wine subjective go finally
14103	38	501210	5005130	5004913	estefan202	10/9/10 1:55 AM	1.2865893E12	depends	right gt gti turn off unused core solution put eggs computer costly video rendering dvd creation extensive graphics take bulk money laptops portable reason less processing speed gain portability nice net book small enough portable go atom processor loose cd drive great small applications displaying photos go macs fine computers never less desktop laptop degree wires purchase laptop cooler fits under laptop blows air uses usb port batteries die years buy spares manufacturers restore cd laptops cut down headaches os gets corrupted true computer thing eventually breaks laptop power connector gets loose charge why say go light portable netbook desk top towers easy fix whatever decide good luck towers usually life expectancy though really ends depending how use computer field office pseudoprofessional photographer myself use laptop editing chose laptop technically notebook over desktop could take field onthefly editing clients locations use macbook lightroom aperture photoshop cs editing issues last three years bought notebook own pc built few years ago though mostly collects dust purchased macbook
14103	39	501210	5005132	5004798	spitfire2005	10/9/10 2:16 AM	1.28659056E12	final pc	understand bryans problem approach simple theres such thing obsolete desktop instead theres always desktop waiting improvement desktop thats almost years old weeks ago replaced old hard drive terabytes state art brand ones minimal cost present cpu changed last year graphic card added started life running vista runs windows lot cables replaced wireless connections easily cheaply laptop say keep desktop fun bringing old friend back life times times great retirement being assure luis
14103	40	501210	5005133	5004798	Robert Inventor2	10/9/10 2:19 AM	1.28659074E12	budget replacement three years time	anything going seem slow three four years time plenty people stay active their eighties nineties nowadays could easily ten twenty years use camera resolutions go pictures need memory processing time upgrade camera whatever count replacing few years time got desktop last computer regretted things laptop could work doors garden park countryside good weather desktop bought thought going place ended traveling lot several months time use old slower laptop far expected eg ill hospital take laptop use hospital depending hospital easy take desktop same applies go visit friend relative weeks months though thats going happen surprising how easily situations change desktop thinking upgrade case anyway never laptop extra ram perhaps most likely upgrade likely extra usb hard drives extra hard disk space fail maybe lots photos wonder firewire help faster data transfer disk going use laptop doors travel bit clummsy take insurance against accident policy laptop got damaged twice once accidentally stood mouse between screen keyboard once left seat bus bus stoopped suddenly fell ground those covered wasnt
14103	41	501210	5005142	5004798	bubzz	10/9/10 3:03 AM	1.28659338E12	allinone desktop	professional photographer highly recommend apple imac fast easy use cope photographic images videoediting throw clive
14103	42	501210	5005159	5004912	asrobs.	10/9/10 3:56 AM	1.28659656E12	desk top every time	desk top long term improving spec required cables bad least alter renew possible laptops compacts tower present mean stay date component time cheaper
14103	43	501210	5005168	5004798	BeachBumJ	10/9/10 3:58 AM	1.28659668E12	last computer	great questions probably last computer years young completed same research describe photo film editing go apple option under buy refurbished intel less money great apple photovideo software option less purchase apple videoographer trading software installed caution investigate hardware software personally before buy long refurbished pcs apple satisfied taking advice given above happy trails jim
14103	44	501210	5005148	5004798	Technick09	10/9/10 4:28 AM	1.28659848E12	final computer keep simple	best luck brian retirement plans take look software comfortable hobbies take full advantage multicore processors bit version should help choose good enough purpose certainly previous crop lots ddr ram good harddrive size too bad idea partition good graphics card important too eg gb dedicated video memory choose less youll regret apple too expensive stay away allinone machine seem too weak purpose things notoriously complex video esp editing converting either between formats fit iphone ipad etc including hd choose antivirusantimalware firewall programs too greedy beware those resource hogs drivers incompatible too many things helps disabled temporarily simple click useful installing safereputable software doing heavy slow tasks videosound editingburning helps firewall control totally block internet access good free programs job stay away those doitall internet security suites clean install machine without those esp without those annoying months free subscriptions leave sorts things behind try uninstall add own later cnet good maintenance program keep machine free junk files likes pesky programs start automatically needed most time slow down stay away those programs too many pseudosophisticated deep cleaningoptimizing things end destroying system quite bit video sound editing slideshows videos pictures multiple soundtracks old dell laptop solved heating problem raising laptop little legs use rubber pads those under noisy chairs small fan side yet laptop ventilated pads tried were useless sometimes gets really slow learned stay away those doitall too video suite programs choke computer tried same powerful machines results were slow too stick lighter programs bottom line good work horse plenty memory processing speed transform please carefully selected software probably suggest pc range us market prices maybe different ryadh laptop yet flexible enough really resist temptation ipad similar preferably opensource device years pc plenty connections usb av svideo least hdmi firewire esata nwireless gigabit ethernet slim pcs attractive seem light connections eg hdmi too few usb burn creations dvd use giant ultra slim tv living room beware those devices meant multimedia boxes interface computer tv most way too quirky something missing clumsy too slow plain unreliablebut day maybemeaning wont need everything done computer esp conversion hope helps bit
14103	45	501210	5005201	5004798	flannigan	10/9/10 4:56 AM	1.28660016E12	desktop replacing relatively laptop	bought less use paint shop pro editing photos use print shop monitor made slightly hpat our age our eyesight getting owned several laptops currently hp cannot compare desktop satisfied hp pavilion elite hpe customizable desktop pc genuine windows home premium bit intelr coretm quadcore ghz mb mb shared cache gb ddr mhz sdram dimms tb rpm sata gbs hard drive save microsoftr office home business norton tm month gb ati radeon hd dvihdmi dp vga adapter off hp usb stereo speakers bluray player lightscribe supermulti dvd burner premium wirelessn lan card bluetoothr memory card reader usb audio video tv tuner tv tuner atscntsc pvr remote integrated sound hp wireless keyboard wireless optical mouse hp home home office store inbox envelope estimated build date september hope helps regards mike
14103	46	501210	5005231	5004798	seniorwrights	10/9/10 6:11 AM	1.28660466E12	allinone laptop	personal opinion stay away allinones their technology infancy working best buy seen way too many coming back repairs especially hp units granted laptops limited life span years exceptionally good thing done prolong their life span ventilate bottom area computer using powered fan arrangement many laptop coolers provide simply elevate rear laptop while powered small block wood hint worth remembering always put laptop sleep turn off whenever away amount time firm believer towers their logevity ability accomodate changing technology worth incovenience wires wire organizers dress those wires ugly their native state changing rotatingplatter hard drives solid state drives worthy furure investment addition graphics cards addons andor modificattions over time less costly buying whole computer years fiancially tolerable practical lives fixed income john
14103	47	501210	5005232	5004912	B1nmidm0	10/9/10 6:14 AM	1.28660484E12	apple isnt solution	while theres little doubt notebooks pretty everything our old desktops use accomplish apple company worth considering especially their prices lack id call solid value look upper end lenovos gb dedicated video cards intel easily pick less complete year home warranty lenovo solid reputation building great stuff meet needs quite while same time saving grand real money while different processors faster usually ranked being around faster isnt difference ask youre person who enjoys real portability doesnt being plugged wall time might separate video card give enough speed while same time portability youve ever enjoyed before idea idiot who purchased notebooks year already myself learned hard way apple isnt option heavy hitter users
14103	48	501210	5005198	5004798	lkbrown5	10/9/10 6:19 AM	1.28660514E12	final computer	keep mind live leat last computer rate technology changes who knows store years technologically speaking might start thinking kind configuration best meet needs easiest grade technology changesand until computer iam retiring toojan wish best
14103	49	501210	5005241	5004798	Dalynnie	10/9/10 6:56 AM	1.28660736E12	buying possibilites	buying computer work done school considering getting computer buy external hard drive store files cut down bogging laptop down currently external hard drive use faithfully sad down back original laptop time computer crashed store photos external drive should able maintain effectiveness laptop laptop personally recommend extended service agreement
14103	50	501210	5005229	5004798	Eric_M_Jones	10/9/10 7:12 AM	1.28660832E12	buying advice final computer	agree those suggest spending money avoid save money buy need plan upgrade needed youd bought thz hd five years agothink where youd remember andrew carnegie our winton motorcar almost perfect advances future hardly imagine improvement
14103	51	501210	5005254	5004798	cbail53	10/9/10 7:28 AM	1.28660928E12	allinone	intermediate computer geek bought allinone hp online years ago love gigs tv tuner use advr collect cooking shows biggest hard drive offer keep table chair where watch tv never move heavy touch screen lots bragging worthless thing lap device big enough watch tv tv keep move tiny place money kitchen good luck
14103	52	501210	5005273	5004798	marchannon	10/9/10 7:56 AM	1.28661096E12	staying riyadh	temperatures riyadh generally north degrees celsius commonly unknown kinds ambient temperature significant detrimental effect ability computers cooling system rid excess heat lead overheating obvious answer use air conditioned indoors rather torpedoes primary advantage laptopportability writing acer travelmate laptop made march laptops uk climatecan decent lifespans being acer way open fit upgrade hardware hammer chisel brands easier ghz processor speed gb ram run windows video editing horrendously slow posts purpose student deals adobe cs etc perhaps signing distance learning course uk open university might wise way spend time money hope helps enjoy long fruitful retirement
14103	53	501210	5005248	5004798	Naudain	10/9/10 7:57 AM	1.28661102E12	buying final computer	brian turn years old last year too wanted buy final computer take lot digital pictures video edit bought imac computer inch screen perfect needs unsightly cords strung al over place tower taking precious space wanted computer simple operate without bother constant windows updates security threats spend time computer installing updates worrying latest virus threat love imac recommend highly plus their support outstanding actually somebody who speaks english without accent who isnt reading script who wants help work imac way go brian ron tipton
14103	54	501210	5005281	5004798	largowreck	10/9/10 8:13 AM	1.28661198E12	buying advice final computer	good question however buy asking appear already limited yourself game multi tasking budget todays world why laptops today big powerfulnot mention beautifulthe problem desktop replacement size thus portability factor lost lets dimension advice great desktop permanently fixed high end processing graphicswhich easily built under editing say nice little laptop vaio poratbility limited own thought patterns expand mind computingor put eggs basket far laptops go quality machine big guys hundred today buy nice machine desktop easy build find someone build using quality components ram big key least dual core processor quad versatility power mobility friend
14103	55	501210	5005279	5004935	Marie Glynn	10/9/10 8:28 AM	1.28661288E12	agree marklynnwilliams advice	sony laptop without problem nearly years avoid heat problem placing antec notebook cooler while use desktop house worry heat use laptop while traveling upgrades down line mr williams advice target replace laptop every yearsjust becausebut find within year purchase upgrade ram windows updates quickly computer slow molasses usually nd year purchase replace hard drive comes year warranty computer buy high quality video card need photo video editing usually come cheapest computers
14103	56	501210	5005297	5004798	Dumbpeni	10/9/10 8:56 AM	1.28661456E12	search under digital photography google	use familiar terminology photo video hobby apply google search should find additional information most suitable computer equipment specific hobby bet end buying tower computer end buying large monitor help facilate hobby people working graphics stuff tend use large monitors large inch across larger laptop yard wide need oversized hard drive store terabytes laptops generally limited less terabyte limited slots ram modules probably end needing ram money buy might gb ram search
14103	57	501210	5005300	5004798	ChiefAllen	10/9/10 9:00 AM	1.2866148E12	buying advice	hi brian same way were found solution help got sony vaio allinone vgclt years ago someone else hp dell similar unit today mine standalone wide screen wireless keyboard mouse wireless wan ready computer screen format inches wide fast attractive capable along type router broadband connection able read burn cdsdvds newer units burn blue ray plenty memory storage over gb running duocore cpu models run core cpus need power unit never let down never failed never broken love lot video music work along molp games warcraft eve display beautiful videos games unit came nvidia gforce card old great produces great graphics consider standalone unit screen computer unit although lose portability laptop gain power aesthetic pleasure satisfaction
14103	58	501210	5005304	5004798	Alain Martel1	10/9/10 9:14 AM	1.28661564E12	personal option	mac indeed interesting comfortable pc architecture advices apply mac ram storage off need powerfull videocard image video editing authoring essentialy cpu ram drive thing video serve show result previews go high entry level low mainstream video card stay away integrated ones disclass most portables need good precessor need intel thats hardcore geeks maybe should enough amd good choice links evaluation intel amd cpus budget ranges subwebaddr subwebaddr next need large amount ram video work large files many need fast access least hard drives large ones tb range agree probably need printer curently software familiar should stay those those available pc stay pc mac version mac obtain mac varsion disagree hot graphics card hot graphics card realy usefull play hot games intensive high details most settings upper range over fps
14103	59	501210	5005327	5004798	hrlaser	10/9/10 9:19 AM	1.28661594E12	beware laptops insufficent cooling	january internal hard drive circa compaq presario xp laptop hard drive head crash time writing articles reviews editing work others site name trying everything possible restore full acronis true image backup external lacie gb drive full backup entire drive individual files docs texts photos music data files backed folders external drive everything tried bring back life failed compaqs internal drive wouldnt format machine originally bought frys warranty longsince expired gb internal drive standard laptop class back working computer within day luxury time comparison shopping looked around online looked laptops sale decided price limit bought acer aspire winblows vista dual core amd turion screen gb internal hard drive standard size time gb ram nvidia gforce graphics chip four usb ports usual specs midpriced laptop half years ago ordered paid over phone nationwide chain who outofbusiness cc drove store mile away picked brought home migrated data files over lacie external obviously restore xp laptops full system drive overwritten vista xp outlook express excess email morphed windoze mail vista basically same program features changed mail dbx databases could imported windoze mail vista thing noticed acer touchpad driver insane change settings behave properly swiping finger across caused select whatever mouse pointer phoned acer pointed different touchpad driver their site downloaded installed bad turned off touchpad function key switched using bluetooth logitech cordless presenter friend given mouse solved problem redownload reinstall lot commercial shareware programs machine days finally back business put croaked xp laptop corner room figuring future date could replace internal hard drive restore system drive os acronis backup external lacie drive acronis lets emergency boot cd own os acronis program job year later bought seagate gb internal laptop drive respected online vendor brought xp machine back life lives bedroom connected router lan cable everything hummed along nicely acer until few months ago suddenly screen full fuzzy black white diagonal bars idea going power off back started happening frequently randomly couldnt associate anything particular acer years old spend days pouring through various windoze forums online using search terms acer overheating such were many suggestions experts plain folks cause problem might consulting friends whom tear computer apart put back together marine his rifle found few years ago computer mfrs were forced law build their machines leadtin core solder forget exact proportion instead good old leadcore solder law passed europe many failed computers were being thrown away theyd end landfills lead leech solder motherboard contaminate water table computer mfrs versions their laptops europe using leadtin solder usa using good old leadcore solder switched making their computers china course newer leadtin solder problem couple years newer solder tends develope tiny cracks sprout microscopic whiskers heat inside laptop under heavy use left hours day doesnt enough internal cooling acer fan cpu gpu graphics chips microfans aluminum heat sinks earlier upped gb gb ram bit vista home premium sees gb gb gb sticks installed required removing huge plastic panel laptops belly ram slots started going screengarbage mode requiring reboot found freeware program called coretemp installed displays temperature each core dualcore cpu percentage load cpu acer running temperatures thermal sensor shutting down computer protect frying itself searching reading finally found someone who answer were three ways around overheating problem buy whole populated motherboard acer cost yearold computer worth take whole thing apart install same inferior leadtin solder give entirely buy laptop days bought january specs interim lost writing gig simply couldnt afford go vistas power plans advanced settings create balanced power plan lowering cpus speed full speed worked semipermanent stopgap measure far saved expense buying laptop although computer runs bit slower coretemp shows running between lot programs running time instead leaving acer hours day put sleep mode retire night use xp laptop brought back life hard drive bedside engineer friends explained leadtin solder situation he said inferior solder computer mfrs forced law use couple years heavy use high internal temperatures solder starts developing microcracks whiskers chips motherboard actually rise off motherboard soldered hundreds solder points computers thermal sensor says eek too hot shuts machine off bought oneyear extended warranty january expired half year ago anyway before solder breakdown problem started nothing battery before discovered cpu power plan trick tried running machine off ac battery made absolutely difference battery fine doesnt warm touch holds full charge bought usbpowered threefan laptop cooling pad dirt cheap put under laptop despite elevating laptop bit sucking hot air bottom blowing four sides coretemp indicated cheap cooling pad didnt lower laptops internal temperature degree took huge plastic panel off bottom acer clean whistle inside none air intake exhaust vents were blocked dust furrballs hair dead rats anything else gave everything good going over dustoff nozzle vacuum cleaner halibut luxury time shop around decide laptop sufficient internal cooling acer simply equip model enough internal fans fan enough cpu gpu should their own microfans aluminum heat sinks older xp laptop hours day built older leadcore solder ha never overheated never shut itself off once use main living room machine singlecore processor usb ports mb ram powerful fan newer acer run many programs simultaneously acer never buy acer computer due lack income currently position replace nor whole motherboard installed ton usb devices connected including seagate tb external drive bought couple months ago parenthetically elderly college professor friend who paid nearly brand imac allinone plus apple care came too small bluetooth wireless keyboard actually smaller fullsized keyboard found impossible touch type thing due size keys apples magic mouse his house last week played thing few hours apple makes pretty stuff understand whole cult apple thing their stuff expensive he switched old windoze xp tower imac totally lost environment friend his talked him buying ipod nano final wheel model he doesnt clue how music onto less rip cds ill probably visit him run him through how works digress sorry point trying apologize length posting intend buy laptop use heavily sufficient internal cooling youre going keep time newer computers made inferior leadtin solder motherboard desktop tower machines easier expand beefier internal cooling most laptops beware computer reviews written writers who shell their own money machine especially mfr machine their sites magazines advertisers reasons should obvious many reviewers afraid offending their advertisers giving advertisers hardware thumbsdown review point might lose advertising revenue chore shopping comparing buying computer become hundred times complicated oh ten years ago choices endless confusing many opinions people who spout thats story experience paid hardearned money acer january half years later developed thermal problems due insufficent cooling poor design course brand model were brand fact start overheating years known google around laptop overheating find thousands postings over place people suffering same problem root cause poor design mandated use leadtin core solder breaks down couple years insufficient internal cooling bad design weak enough fans higher higher speed chips generate heat underengineered machine handle apologies rambling intent inform confuse best wishes harv
14103	60	501210	5005329	5004798	Osiris43-Live	10/9/10 9:27 AM	1.28661642E12	desktopphotoshop elements	desktop price range case allinone save money internal components usually added changed cpu fastest amd intel available price range manufacturer doesnt really matter usb ram gb hd gb internal drive usb add many tb external hds need need less each id recommend getting least external hd backup entire desktop graphics todays integrated graphics great except heavy animation thats probably good enough nice addon graphic cards cost less require full size desktop tower case increase base cost os buy system comes windows starter home basic editions least home premium edition however home premium doesnt include builtin backuprestore windows xp emulation hard drive encryption professional edition adds backuprestore functionality eg external usb hds windows xp emulation ultimate edition adds hard drive encryption buy online upgrades windows version higher version time eg home premium professional ultimate already eligible windows upgrade pricing might go way ultimate upgrade price professional graphics software images adobe photoshop elements images video adobe photoshoppremier elements package prices amazon monitor least lcd wide screen resolution ms less refresh higher contrast ratio monitors rotate between landscape portrait orientation although adds cost cost starts around highly recommend comparing physical monitors before buying monitor performance doesnt always match specs forget buy antimalware application norton mcafee trend little available free through internet service provider should need under reality check wife likes play images last spring bought her acer slimline desktop integrated nvidia graphics amd athlon ii cpu gb ram gb hd windows home premium lg widescreen monitor tb external western digital hd adobe photoshop elements norton internet security free isp shes happy clam less
14103	61	501210	5005351	5004798	LaQuinta74	10/9/10 9:37 AM	1.28661702E12	buying final computer	hi brian name patrick live naplesflorida imagine saudi saudi humidity summer our wet season lasts months finished having our hottest season record anyway mentioned graphics video editing highly suggest getting mac allinone mine years problem actually call support unfortunately problem iphoto use iphoto choose whatever application youd use probably familiar heard few negatives iphoto enough mess too default photo download app anymore best things desktop mac allin many wires running around place fact easy set many peripherals wireless bombarded high priority update notices every time open screen junk mail kept bare minimum without having although pay yearly subscription mobileme find worth closing mention mac desktop aio years fast day got oh memory upgrades relatively cheap easy words love good luck patrick ps dell laptop mainly taking cisco academy classes issues abeit minorso far weeks please keep touch
14103	62	501210	5005345	5005071	LaQuinta74	10/9/10 9:45 AM	1.2866175E12	options	go mac pics walmart rd party change file format preinstalled default forget something jpg jpeg easy necessary pics disc sayin
14103	63	501210	5005338	5004798	bleary	10/9/10 9:48 AM	1.28661768E12	mac	dear brian hesitated tell macbook pro youre probably windows guy until saw many people doing same thing yearbook advisor high school spend half computer life photoshop processing photos take high end equipment really computer last safest bet mac wont worry viruses trojans repairs writing macbook pro years old works how vision wear trifocals eye doctor once told laptops older people who wear bifocals easier position laptop look down through lower part glasses mac tower hardly ever use laptop comfortable old computer last probably could good years mac doing low end things writing letters surfing web years processing photos video before youll probably something faster although computer work saying macs perfect lot less chance youll issues
14103	64	501210	5005375	5004798	nocook	10/9/10 10:21 AM	1.28661966E12	laptops improve	years old living fixed pension good luck buy everything cannot give technical help urge drop final computer thinking submitted paul
14103	65	501210	5005391	5004798	professorjohn	10/9/10 10:36 AM	1.28662056E12	laptop	actually simple question need portability laptop costs equivalent power latest consumers reports clearly shows laptops including machave greater failure rate desktops stuffing advanced computing equipment tiny hot box gets bumped around place place compatible reliability repairs expensive due specially designed smallscale parts however computewatch netflixemailetc multiple locations laptop suffer along millions others who made same compromise knowingly allinone similar laptop except bumping around place place desktop way go need portability research find reliable differences quality failure rate cheaper desktops rating laptops
14103	66	501210	5005382	5004798	spabercr	10/9/10 10:36 AM	1.28662056E12	looking buy next computer	computer industry over years owned multiple computer related business along working leading manufacturer offering personal opinions wont mention company names todays selection truly great price vs performance outstanding mentioned graphics video editing start off saying multi core processor exactly need along large amount memory recommendation look hp commercial grade products called elitebook workstations based experience major oems find hp most tested commercial grade computer industry others disagree work personally business laptops desktop havent issues upto past years ok mention mobile desktop most powerful unit own mobile workstation class laptop high end mobile gfx engine nvidia gig ram runs core processor intel worry heat last generations intel microprocessors lowest power consuming fastest industry processors market getting faster cooler thing recommend upgrade hard drive main line hard drives spin motor spinning hd major issue laptops people pick walk around running good idea cause total loss data due spinning platters getting damaged heads read write data hitting spin solid state hd moving parts jump airplane keep working being said price bit higher size hds smaller ok need massive hd laptop modest gig solid state sdhd work purchase external hi capacity hd plugs laptop associated docking station unit low coast fact found lacie tb external hard drive hp less tera byte drive stores over full length movies thats lot room type laptop recommend hp xxx series elite workstation run recommend core processor intel video editing conversion significantly shorter work done faster extra cores significant difference how long takes convert hd video mpeg same converting pictures modifying through photoshop oh low power keeps things cool recommend windows professional bit operating system gigs memory expand gig later course offer sd hd upto gig save money instead buy external hd massive storage owned model over year features mentioned love working login less seconds hitting power button bit os fast windows flexible doesnt give issues thing hdmi port mine plug hd tv amazing video playback good luck
14103	67	501210	5005399	5004798	rongeee	10/9/10 11:55 AM	1.2866253E12	final computer	hello lee same position years ago purchased apple macbook pro inch definitely last laptop month ago lost access usb ports returned machine dealer purchase informed replace logic board estimate cost took apple store received same results informed usb ports many mobile devices extremely fragile whatever means course intend paying repaired mac book pro pc laptop similar specifications maybe latest macs technical perspective favour hiend mac contains separate video card own processor good photoshop video editing lee views someone who gone route hope helps little ciao ron
14103	68	501210	5005411	5004798	Dango517	10/9/10 12:05 PM	1.2866259E12	final pc hope spend	twice amount lol live little enjoy subwebaddr information subwebaddr
14103	69	501210	5005439	5004798	LucJPatenaude	10/9/10 12:49 PM	1.28662854E12	amd based systems considered	search stores web sites ones closest home look quad core based machine good quantity ram gigabite should suffice quite time least years long go stores offer inhome installation configuration own specifications therefore desktop machine price tag taxes delivery site installation costs should pass overall cost forget need buy latest internet security software quite possibly favorite every day game outside usual hobby yours retirement offers lot time yourself days quite long whole hours day every day rest remaining life years become eternity forget days worked horse monies needed those darn bills enjoy shopping
14103	70	501210	5005452	5004798	J. Baggett	10/9/10 1:19 PM	1.28663034E12	buying advice final computer	brian unless plan move lot opt best desktop largest monitor accommodate lifestyle years old bought third final computer retire computer important obviously experienced something meet needs computer keep connected involved keep stretching mind live longer jeb
14103	71	501210	5005453	5004798	jrundog	10/9/10 1:26 PM	1.28663076E12	monitor buy	most laptops brand mac mini decent amount memory recommend least gig dual processors handle picture processing aperture works fine configuration found absolutely necessary useful attaching large displaymonitor laptop facilitate manipulation pics enhance postprocess way carry laptop wherever go locally trips luxury large display office thereby negating need buy allinone desktop started photography years ago eventually found best arrangement skip processing walmart spend budget quality printer own printing jimcur
14103	72	501210	5005495	5004798	Jenson2	10/9/10 2:31 PM	1.28663466E12	processor	brian congratulations retirement hope provide assistance budget sizeable experience primary area invest money processor ram upgraded different programs added deleted processor forever intending photo video editing recommend least intel amd phenom ii adequate video photo work stated working photo video editing large harddrive desireable gb larger preferably larger given those points laptops suit purpose large rather heavy making their portability moderate value rather pricey comparison similarlyequipped desktop allinone addition usually having smaller harddrives laptop question becomes desktop allinone debate wires over place mess rather neat tidy person allinone probably preferable few wires connect set plug begin among allinone manufacturers recommend apple imac lenovo ideacentre ju hewlet packard xt models offer intel iseries processors hp imac offer intel while lenovo offers intel large ram gb large harddrives gb dedicated graphics preferable necessary hp offers dedicated graphics option point question becomes software use video photo editing software work windows platform work apple platform made decision point need right away lot superb software available mac windows photo video editing though take sizeable portion budget professionallevel software cheapest way go buying computer desktop tower buy peripherals need monitor style space issue allinone probably ticket best wishes retirement computer search
14103	73	501210	5005520	5004798	JAISWEBINTERNETCOMMS	10/9/10 3:54 PM	1.28663964E12	re buying advice	hello actually own computer consultancy business united kingdom lots computer call jobs london various parts uk say budget could buy decent computer system needs desktop computer us careful choosing pc component fails fixed guarantee runs take time various parts theyve burnt ordered could takes weeks days fix problem should desktops components fail careful buying laptop many clients buy laptops use laptop charger power laptop hours hours hours end end damaging laptop years should really charge batter laptop use laptop independently off battery words intend buying laptop purchase laptop least between hours battery life use laptop quite few hours laptops were introduced computer market were seen many replacement desktop pc drawbacks laptops ie buy laptop guarantee run theres high price pay fixed example completed laptop repair job involved stripping down laptop hp pavillion dv problem laptop started cutting every few seconds being turned eliminate several possibilities causing fault finally found fault nvidia graphics chip started overheat heatsink wasnt keeping nvidia chip over heating use cleaning solution cleaning solution removing old thermal conducting liquid cpu graphcs chip afterwards placing silver compound over nvida chip cpu chip replacing heatsink once done laptop worked dream tempoary fix problem start over few months careful purchasing laptop cost problem good deals available desktop hp dell buy hp laptops though problems over heating hp desktops good go slimline hp go full tower slimline cases overheat room fans cool down system could opt building pc getting friend family build pc fraction price looking pay come intel processor
14103	74	501210	5005560	5004798	HomelessClarence	10/9/10 5:31 PM	1.28664546E12	lots good stuff available	brian frs electronics spoke lieutenant who deploying afghanistan wanted documentaries sent back home convenience he wanted laptop easier transport needed deal heat dust needed process hd video files settled different machines he needed check manufacturers support afghanistan three were panasonic touchbook dell latitude xfr hp rugged basedwith storage ram handle remember editing programs run ram files quite large decided intelbased technical service limited how riyadh windows os should lot people help run across problem apple great crash break otherwise screw might own saudi arabia
14103	75	501210	5005587	5005159	audiosoft	10/9/10 7:23 PM	1.28665218E12	date	hardly motherboards cpu slots keep changing could add ram down road thats recommend wait until buy desktop usb ports laptops nice hard drive die ssd drive hard drive stays ok odds laptop screen battery need replaced within years desktops reliable
14103	76	501210	5005599	5004798	five0_	10/9/10 8:50 PM	1.2866574E12	where find looking	need computer best deal money go techforlesscom lets face times getting easier save off bought laptops desktops bought store able afford months their outdated anyways their tech support great their warranties call help budget needs five five yahoocom
14103	77	501210	5005730	5004950	baukus	10/10/10 5:28 AM	1.28668848E12	mac	imac years never take repairs buy anti virus software cost little pc spend min scanning disc cleaning defraging etc blasted thing work optimize hard drive occasion small price pay always being able use computer lot less stress said far fewer cuss words imac ll admit arent perfect lot closer pc
14103	78	501210	5005741	5004798	cmhenkel	10/10/10 6:35 AM	1.2866925E12	shop right save rest	need spend entire right technology prices rock bottom id go current needs figure replacing newer machine yrs needswants change retired photographer spend our winters az lenovo allinone place where space issue hp desktop where space issue laptop travel traveling move photos off camera caption necessary organize hard drive each night machines total bill around minimum ram running each gb happy performance running windows xp vista respectively seem talking nice each welcome retirement youll never how time work cleaning day found receipt our computer appleiic right around our second computer dos os whopping big mb hd cost right around same amount
14103	79	501210	5005784	5005599	cooldrywit	10/10/10 7:53 AM	1.28669718E12	tech less	reading post decided check tech less look inexpensive mac while good deals prices refurbished mac insane subwebaddr pay brand imac
14103	80	501210	5005795	5004798	kennethallen	10/10/10 8:01 AM	1.28669766E12	last computer	last computer computers last ever design technology moves fast trying keep machine long false economy retired four years ago replaced machine once expect need few times yet advice buy machine laptops way go most us running previous release windows vista quite latest chipset fast bus ram hard disc need edit video premium version windows good lcd screen uk could half budget put rest away next upgrade invest good backup external hard disc online service ken
14103	81	501210	5005835	5005520	hrlaser	10/10/10 9:38 AM	1.28670348E12	attn jaiswebinternetcomms please read post	hi said problem laptop started cutting every few seconds being turned eliminate several possibilities causing fault finally found fault nvidia graphics chip started overheat heatsink wasnt keeping nvidia chip over heating use cleaning solution cleaning solution removing old thermal conducting liquid cpu graphcs chip afterwards placing silver compound over nvida chip cpu chip replacing heatsink sounds similar problem described post thread how acer aspire laptop started behaving few months ago screen full diagonal lines nvidia gpu gone nuts random shutdowns machine powering itself off releatd nothing doing time explained solution found bench tech could possibly perform cleaning task total computer idiot messing internal hardware way described tools materials training knowledge could comment remarks possible cause learn newer mandatedbylaw leadtincore solder motherboard opposed older leadcore solder using vistas power plans advanced settings lower maximum speed cpu tremendously reduced internal temperature machine although slowed down bit realize ideal solution lack money prevents having someone perform repair task described clue youd charge cleaning silver heatsink job piece cra err acer laptop lived next door please read entire post older hp laptop never overheating problems hours day should acer put microfan nvidia chip amd turion cpu machine instead using heatsinks root cause problem leadtin solder theyre forced use developing microcracks half years thanks harv
14103	82	501210	5005911	5004798	ronic242	10/10/10 11:18 AM	1.28670948E12	wow	read lot postsand must sayi agree quite fewi toshiba satellite media center laptop bought years agohas slots programs could possibly need media xtra memory slotscan plug camerassd slotand havent far overheating husband bought flatboard cooling fans rest laptop ontoand plugs usb port laptop usb ports doesnt matterthe cooling board cost under walmart computer costs almost fully loaded mean loadedyou love were check onlineand buy direct company good deals manufacturerscant hurt
14103	83	501210	5005947	5004798	thejones10	10/10/10 12:43 PM	1.28671458E12	big budget	hi brian laptop provides great flexibility recommendation based upon fairly high budget few laptops over years pc world hesitate highly recommend lenovo laptop lenovo makes cool running laptops actually place lap without getting hot extremely built laptop money piece mind likely able extended warranty budget happy hunting
14103	84	501210	5005958	5005730	ronic242	10/10/10 1:49 PM	1.28671854E12	perfection	computer market perfect previously stated post laptop toshibe satellite media center edition actually years old everything brian looking disabled therefore online quite bit stuck dialup online eternity take pc town grab wireless connection available currently over pics pc momentas where live lot wildlife didnt clue how touchupsmake moviemake slidesetcuntil got computer taught thru programs easy previous laptop hp burned desktops wouldnt recommend those either laptop option sitting favorite chair front tv going outside deck watching wildlife around grandchildren play etc computer actually too ever use thats ok never single problem ever someone posted batteries last years funny mine years going need either adding memory double originally came send photos place such photobucketcom virus protection such trust computer didnt need thats own personal opinion love knowing protected who attempted hack computer maybe others care hope good time finding youre looking frustrated fun youre having fun doing stop take deep breath smile save shopping day
14103	85	501210	5006002	5004798	baggage1	10/10/10 2:12 PM	1.28671992E12	happy retirement	lots valid statements sort through brian decided getting st laptop wanted format desktop got cheapest could find compaq keyboard issue replaced machine weak cpu ram run vista ultimate broke down got biggest cpu most ram could put use bought compaq nvida setup died last year solder issue stated earlier replaced mother board runs friend hp amdnvida same problem class action suite taking care issues laptop replacement repair costs covered advised sister best came bummed replaced issues hardware resolved hp others say pcapple debate alive tech looking inside devices pretty robust handle shock knocking around point take mine motorcycle trips tv movies et aint timex rocking good luck
14103	86	501210	5006042	5004798	tcsd38	10/10/10 3:39 PM	1.28672514E12	best system	macs expensive replace parts onand often fragile pcs easily replacables parts arent flakey macs runiing great once problems develop becomes great white brick id run linux os intel system max memory run dirty enviroment look ruggedized laptop panasonic company offers parts less fragile police often use linux most cost open source try several our via live boot cd id suggest mint ubuntu debian flavor absolutely windoze go win max memory usoft xp mode works win version run downloadable option need run xp apps stilldont listen weenies who says gb memory enough gb bit instruction set graphics run anyone who doesnt suggest thatlose find someone who wont jerk ypou around site found start need subwebaddr
14103	87	501210	5006065	5006002	hrlaser	10/10/10 4:54 PM	1.28672964E12	class action suit amd nvidia	hi mr baggage information links class action suit regarding heat failure laptops amd cpus nvidia graphics chips id join suit acer aspire definitely qualifies victim premature failure due overheating acer entity ever contacted way yes registered computer acer day bought january thanks harv
14103	88	501210	5006094	5004798	hrlaser	10/10/10 5:36 PM	1.28673216E12	article leadfree solder	relates original article where learned newer leadfree solder problem subwebaddr
14103	89	501210	5006142	5004935	generalcaw	10/10/10 8:11 PM	1.28674146E12	agree marklynnwilliams advice apart point	agree marklynnwilliams advice apart point point being macs video editing strongly disagree equally good task work web developer means use extensive use photos graphics video editing software use adobes creative suite includes photoshop etc comprehensive best opinion available mac windows suggest purchasing windows desktop less fiddling easier fix something were go wrong cheaper same specs least gb ddr ram small speedy hard drive running operating system large tb tb hard drive storing photos videos pretty graphics card going last long time specifications wise pricey going cheaper option mean years down road find sluggish dealing video editing especially updates technology eg higher megapixel cameras etc next play burn videos photos disk need least dvdrw drive perhaps bluray drive optional depends requirements processor wise go cheaper intel processors powerful reasonably priced go higher models overclock processors easily most motherboards allow bios via taskbar application motherboard wise go motherboard option upgrading ram look max ram gb gb motherboard specs last long time upgrade ram required suggest something asus premium ddr ram support usb connections ever need doubt last long time unfortunately stated title final computer problem useful life time computer years technologies come play time theres avoiding afraid based uk website wwwpcspecialistcouk allows build own pc choosing parts installed inside reasonably priced compared high street shops saved got exactly wanted sites similar pcspecialist states unfortunately unable recommend due location marklynnwilliams wouldnt spend budget pc straight away spend budget pc itself operating system software final fifth spare spend upgrading further down line hope helps
14103	90	501210	5006398	5006065	baggage1	10/11/10 9:07 AM	1.28678802E12	courts	case adjudicated december th time able claim subwebaddr believe reason hp compaq extending their warranty enhancement program issue
14103	91	501210	5006601	5006398	hrlaser	10/11/10 1:52 PM	1.28680512E12	courts	mr baggage thanks information link sent emails physical letters many times concerning classaction lawsuits qualified member class none ever resolved point where actually got something expensive entire computer motherboard plus installation computer thats behaving mine most ones qualified class member resulted ridiculously insulting payoff credit against purchase cell phone carriers store court took however many millions company fined split amongst millions customers ill follow thing simply afford buy laptop pay ones worth fixed thanks harv
14103	92	501210	5006597	5006398	hrlaser	10/11/10 2:13 PM	1.28680638E12	class action suit link found	hi link class action lawsuit against nvidia bad luck leaves twisting wind according link page linked click dedicated website subwebaddr concerned hp dell compaq apple models overheating nvidiaequipped laptop acer though built during specified period september isnt single acer model listed smacking forehead thanks harv
14103	93	501210	5006728	5004798	Kingdaddy2000	10/11/10 5:26 PM	1.28681796E12	best answer buy imac ipad portability	really need laptop stated however must consideration portability having least thought recommendation buy allinone discounted quad core imac target limit youll able photos buy gb ipad youll able really enjoy show friends pay mobileme download dropbox sign gb account free best advice go apple store best buy etc try before making different bad decision wont regret switched mac year ago pcs years good luck
14103	94	501210	5006761	5004798	padillab	10/11/10 6:12 PM	1.28682072E12	humble advise	deinitively go desktop replacement heat generation problem fact tons laptops stands heat dissipation super dell media center editing hobby asus sells excellent quad core units handle anything hard drive gigs bpadilla
14103	95	501210	5008162	5006042	vandrook	10/13/10 7:28 PM	1.28699808E12	cmon seriously whos jerkaround	wow impressive knowledge linux kernels guy apparently optimistic his longevityand recommending linux box same post claim macs too touchy seriously bro love linux flavors recommend little off base situation real complicated real quick propose using simple effective editing suite linux box
14103	96	501210	5009260	5004798	PsychGen	10/15/10 4:55 PM	1.2871617E12	buy final computer	however manufacturers software vendors different agenda
14103	97	501210	5009246	5004798	AmeedEl-Ghoul	10/15/10 4:56 PM	1.28716176E12	imac inch	good day sir purchased mac imac inch desktop purchase computer mainly done based same reasons mentioned regarding photo video editing starting photography business need repayable machine deliver operating system doesnt crash time photographer prospective kick self bombom buying mac long time ago wouldve saved allot time bought month go yet single crash big plus big wonderful screen process pictures zooming without problems screen enough reason buy got quad core carry through work load gb ram machine monster never complain work pumping ram gb canon mkii tried opening raw file same time problem heavy process problem happy photographer mac number choice thing regarding imac inch comes wonderful wireless magic mouse wireless keyboard cable desk camera cable connect keyboards usb port best choice wish happy retirement
14103	98	501210	5009255	5004798	philw19642002	10/15/10 5:07 PM	1.28716242E12	laptop might need	disadvantage buying laptop final pc time set being good years really purchased desktop last should years gb ram tb hd memory plus external mother laptop desktop never ever longer use anythign her desktop good luckgod bless
14103	99	501210	5009249	5004936	davidpl	10/15/10 5:11 PM	1.28716266E12	buying advice	video photo editing processor least go cost computer usable longer dell laptop boots shuts down faster dual core amd tower years old task runs goes faster exception slower dvdrw drive
14103	100	501210	5009271	5004798	phxomega	10/15/10 5:11 PM	1.28716266E12	cents	doubt last especially began enjoy pc many ways go looking video editing speed quad core above ssd night day difference usb going external drive containing files note bought relatively cheap quad core laptop mother replaced her hard drive ssd faster own laptop similar configuration built desktop using following components asus motherboard core ghz gb ram ddr xfx radeon hd coolermaster atcs case ocz ssd gb previously under tell plenty video editing need
14103	101	501210	5009265	5005006	JCitizen	10/15/10 5:12 PM	1.28716272E12	good advice charles	hit right nail head
14103	102	501210	5009258	5004925	lennylampert	10/15/10 5:12 PM	1.28716272E12	remeber backup backup backup	agree everything pb written add caveat suggest relying external hard drive permanent storage data external hard drives provide false sense security tendency fail need most many cases take data expensive retrieve data possible speaki learn hard way others avoid expensive lesson backup important data onto dvds cds files small incidentally library congress digital archives recommends replacing dvds least every years good idea copies dvds point claim digital media degrades over time dvds
14103	103	501210	5009266	5004913	BirdDog01	10/15/10 5:16 PM	1.28716296E12	video card isnt important	true lot processing gets handed off graphics card especially photo editing software
14103	104	501210	5009267	5004798	wayneepalmer	10/15/10 5:26 PM	1.28716356E12	id	frankly amount money could outfit yourself acceptable desktop decent laptop suspect youll find having permanent desktop unit office doing various tasks plus mobile unit cover parts house come far handy single killer gaming machine plus assuming sharing home mean options taking care business decides research knitting patterns celebrity gossip chatting sibling via facebook checking pics vids family anklebiters
14103	105	501210	5009294	5004940	dominusangelus	10/15/10 6:03 PM	1.28716578E12	nt core	NIL
14103	106	501210	5009296	5004952	Mike Hawthorne	10/15/10 6:16 PM	1.28716656E12	falcon northwest	buy falcon northwest talon good monitor keyboard speakers choice set years matter run talon run lord rings online speeds fps adobe graphics software runs dream come bloat wear everything set ready go several day rigorous testing buy fnw computer years going big brands gateway dell etc friends come board best computer ever issue talk tech their factory india
14103	107	501210	5009317	5004798	dominusangelus	10/15/10 6:17 PM	1.28716662E12	core	todays intel experimental technology series processors extraodinary capability must look latest version windows operational system windows best experience web browsing internet explorer those most important stuff should consider lateet technology portability nothing back yard video chating loves ones best features friendly tutorial site grade everything stay update good luck
14103	108	501210	5009298	5004798	EvelynJK	10/15/10 6:20 PM	1.2871668E12	final compter recommendations	having recently purchased small desktop computer being totally happy choice rather recommend purchase nice fully loaded slim sleek laptop computer find myself enjoying year old dell inspiron laptop enjoy dell inspiron zino hd wish upgraded newer laptop mainly portability newer sleek designs available ready dump inspiron big mistake replace dell studio hybrid unknown dell inspiron zino hd oh perhaps ill adjust finally figured way deal lack usb ports thanks monitor having hub ports please whatever something early waited too long mind return purchase instead must adapt something good luck hope helpful
14103	109	501210	5009334	5004798	tahmed	10/15/10 6:37 PM	1.28716782E12	go laptop	go laptop laptops freedom write mcdonalds daughter play play area laptop using their free wifi freedom compute anywhere home compelling enough being able compute anywhere vacation visiting family mcdonalds put price year old laptops continue work fine thats back day high heat high power consumption days sold probably give someone need yourself cooling pad targus chillpad thatll keep laptop nice cool
14103	110	501210	5009341	5004925	briceone	10/15/10 6:45 PM	1.2871683E12	full agreement	class advice opinion retired decided attempt build own took awhile few errors way lot help various sources made hwever laptop buy allin desktop apple mac laptop budget enough start good luck future computing
14103	111	501210	5009354	5004798	marcel48	10/15/10 7:01 PM	1.28716926E12	advice buy	advice actual buy acer nice looking products their reasonable pricesbut little research their warranty support little non advice stay away acer cost
14103	112	501210	5009361	5004950	multimedia1	10/15/10 7:09 PM	1.28716974E12	word asus	asus jx processer primary use photo editing bought instead building desktop saved bunch money regrets handles anything throw fine over heating issues
14103	113	501210	5009377	5004798	HEDBlegg	10/15/10 7:42 PM	1.28717172E12	NIL	typing message allinone reason purchased relative cheap desk top computer died back external hard drive every second day often busy back external drive disks continually st external drive die expensive retrieve informationmy desk top died bang purchased aio found upgraded laptop weighs ton heavier old desk computer tower thing screen touch screen soon go back conventional computer tower touch screen attached basic laptop use away home transfer photos onto quickly browse check quality before moving location connect our car power via inverter trip battery sometimes runs before day through suggestion desk top tower upgradeable plus laptop inverter car power travel least external hard drive use computers lots disks hope helps
14103	114	501210	5009403	5004925	rchuncleskeleton	10/15/10 8:20 PM	1.287174E12	misleading response	youre response subject misleading many todays laptops either near powerful their desktop counterparts real reason own desktop youre playing latest games option upgrade processor graphics card later down road buy laptop intel core processor running ghz gb ram gb hard drive graphics chip powerful enough run almost every current game around person budget their computer suggest buying laptop external monitor using computer home near powerful offer same productivity around same price desktop
14103	115	501210	5009411	5009403	Phil411	10/15/10 8:39 PM	1.28717514E12	hmmm	second motion powered laptops quite formidable having around double triple power previous gen desktops core quads slightly less powerful current gen desktops running same hardware gaming front definitely play most games medium medium high high settings depending gfx card heat control system pretty decent frame rates
14103	116	501210	5009399	5004914	Phil411	10/15/10 8:49 PM	1.28717574E12	NIL	exactly mbp makes pc based system toshiba running win bit powered mpb trouble pc gives doesnt mouse gestures while using mac quickly become habit mac hand things need map network drives change colour generally bend
14103	117	501210	5009404	5005587	Phil411	10/15/10 8:58 PM	1.28717628E12	lets	add ram larger hdds laptops getting usb support dual gfx cards tb drivesyou hard drive definitely isnt going die isnt ssd most laptops days come mechanisms park read head sense knocks rig gets dropped ssds wayy expensive currently purchase gb hdd bout same size ssd gonna run round high performance readwrite speeds state screen battery need replaced years currently year old compaq nc original parts cept hdd needed bigger drive
14103	118	501210	5009405	5004798	pranav_mishra	10/15/10 8:58 PM	1.28717628E12	nt desktops	NIL
14103	119	501210	5009428	5004798	pranav_mishra	10/15/10 9:34 PM	1.28717844E12	desktops dude	awwryt laptops definitely become obsolete span years cannot usually upgraded screen size definedand unreasonably expensive plus point lappy wd easy move nut chances getting stolen high favorite desktops dude tanker fill everything got ok ll go huge cabinet link companies manufacture huge cabinets amazingly huge capacity power supply box subwebaddr subwebaddr ok cabinet go processor guess latest core go latest processor world next comes mother board dude compromise processor subwebaddr ok cabinet procesor mother board comes graphic card ram nvidia name go gb dd ones gb dd ones go below never ati comes ram best processor support upto gbs ramddr too ddr gb slots gb ddr man building monster pc ok cabinet mother board processor graphic card ram nothing remains actually actually cold country heating should problem come degree average place ac computer room go cooler agents expensive comes cabinet luck comes hard drive ll suggest go many internal hddinstead go gb hdd internal ll take tb hdd external internal hdd capacity slower system performance left monitor mouse speakers modems keyboard buy heaviest keyboard town contact ebay shud cheap deal thats friend ll leave something amazingly huge fore children build sculpture name respect generations ll work price ll tell super should come under usd ohh forgot os buy windows wait untill microsoft launches windows xp fpr free xp best actually xp jazzy
14103	120	501210	5009429	5004798	cnetuser88	10/15/10 9:40 PM	1.2871788E12	should difficult decision	should difficult decision between laptop desktop usually should least pcs laptop desktop laptop should apple desktop brand name unless care budget take pc go outside unnecessary buy laptop desktop however should try desktop bluray burner pc installed bluray burner future
14103	121	501210	5009456	5009403	gls5000	10/15/10 10:27 PM	1.28718162E12	powerful laptops pay premium	yes indeed powerful laptops comanche sli kobalt computers basically clevo gbp beast plays pretty game throw high level pay quite premium power small box desktop computer always somewhat powerful laptop same price compare same components gtx laptops powerful gtx desktops own experience powerful laptop generates lot heat already motherboard burn graphics cards died waiting response guarantee replacement months thats story reason getting laptop mobility need move computer place laptop youre paying premium size real benefit
14103	122	501210	5009457	5004798	Boogaloo	10/15/10 10:33 PM	1.28718198E12	road convenient	brian cannot tell best tell works years old maybe find something fits keep older desktop hand high end audio system part radio broadcast engineering business updated graphics handle adobes flash player under slower ghz cpu keeps ticking years gets corrupted care thing clone hard drive bought clone back twice lousy software collapsed were really concerned put external drive really really prefer restore major disaster cloning thats hard laptop never success manufacturers restoration disk said replaced toshiba windows xp laptop really serviced primary business machine fan failed years found fan couldnt case open replace cost service led retire favor hp dv laptop surprisingly equipped under impressed time put terabyte seagate black armor external drive handles scheduled backups operating system critical files automatically background use field broadcast test instrument too really convenient efficient intels core processor under windows bit photos took over mp shots during afternoon horse show rocknroll mode filled each card dumped hp laptop while filling next card fast action shooting same time show riders were able watch photos fast moving slide show wound selling over hundred photos professional obnoxiously picky rare really serious edits avocation distraction massive editing canons digital photo pro need cropping correction justify adobe serious pro use laptop found impossible align laptop screen match photo color contrast really serious edit accomplish use desktop corrected monitor bottom line laptop likely hold denying standard sized desktop advantage repair upgrades service life repairing laptop true pain hard beat versatility buy heck laptop desktop equipped versions
14103	123	501210	5009466	5005730	m.colyer	10/15/10 11:25 PM	1.2871851E12	nt mac	NIL
14103	124	501210	5009468	5005017	m.colyer	10/15/10 11:41 PM	1.28718606E12	buy mac	yes ill second windows computers many years sorts problems were mostly resolved months ago id enough went imac could afford different life never problems fabulous photography fast big tower electronics expensive imac last years whilst bought windows computer youd probably replace couple years wouldnt recommend laptop serious photographyeven macbook yes macbook tried screen resolution simply lot slower
14103	125	501210	5009474	5004798	rlcato	10/16/10 12:04 AM	1.28718744E12	refurbished macbook macbook pro	save lot cash fully guaranteed year subwebaddr year almost applecare protection plan take years could set back youll play buy cheap mouse dongle remember youre retired time take easy
14103	126	501210	5009486	5004798	intmarine	10/16/10 12:30 AM	1.287189E12	macmini plus ipad perfection	macbook pro their predecessors computer long time decades actually ready change applies dad his rd macbook macmini fast capable machine excellent software camera work everything else budget buy whatever flat panel display fits needs buy ipad portable needsthey sync their data together fluidly eliminate pc confusions many clients though isnt specification found ipad everything need doing tech support corporate clients together fill complete checklist described perfect computer while technically portable mini easily moved room room stuck homeoffice time answering emails while walking park ipad taking real computer inlaws extended stay flatpanel display always sale somewhere local elegant freedom found version ipad live cheap non cell phone further helping budget
14103	127	501210	5009495	5004798	robBob57	10/16/10 1:03 AM	1.28719098E12	old laptop	hello brian maybe help using dell inspiron second hard disk upgraded doubled memory full gb noisy ventilator little laptop ghz cpu humming away use mostly surf internet read email days road newer hp compact vista installed got lot faster say least however point wouldnt worry ventilator fan conking saudi arabia yourself really nice laptop photographer vidio enthusiast assume need lot storage memmory ram good graphics card therefore recommend laptop separate graphics card integrated least gb ram hope helps best regards robert
14103	128	501210	5009512	5004929	vvenc	10/16/10 1:29 AM	1.28719254E12	ad jdonnellatduedu	consider advice most handy among others reasonable comments regards vaclav
14103	129	501210	5009505	5004798	laago	10/16/10 2:10 AM	1.287195E12	branded good warranty	whatever end unbranded firm many use inferior parts especially cases warrantys end costing money
14103	130	501210	5009515	5009403	j888www	10/16/10 3:03 AM	1.28719818E12	necessarily	upgrading processor graphics card impossible maybe difficult modern laptop highend laptops often outperform average consumer desktops every aspect present viable opt intels core ix technolodgy reason being far too long explain harddrive opt replace intel ssd gb size dependant budget cost concern opt slc ssds rather mlc ssds notice difference save os using ubuntu free saving spent components wireless standard etc etc etc should need mentioned present desktop setup soon become obsolete previously stated explain factors take far too long
14103	131	501210	5009528	5004798	j888www	10/16/10 3:33 AM	1.28719998E12	opinions differ	most replies offered apply op basically people boasting how fast cpu how big their hdd how kool their setup pardon pun necessary read understand needs op before replying grasp gentleman years age nearly cannot lug juggernaut his back playing hardcore games he wants system mainly photoediting time become obsolete dependant requirements people who using windows ibm system ancient peoples opinion always differ youll need sortout good advise replied ridiculous far complicated choosing computer
14103	132	501210	5009546	5004798	numbersgal	10/16/10 4:03 AM	1.28720178E12	large monitor eyesight deterioates later	having bought mother her most recent computer her th birthday years ago spent time setting her poor eyesight macular degeneration she needs use large font large monitor critical getting enough text screen she read easily monitors size under invaluable id argue desktop big monitor large imacs
14103	133	501210	5009554	5004798	wwgorman	10/16/10 4:10 AM	1.2872022E12	last computer	years old surprised last computer second type computer depends circumstances homes travel own financial planning tracking important uptodate daily market third why computer todays pricing home where divide time between months time top line portable external keyboard mouse setup each location internet high speed access bothperhaps seasonal turned off wifi locations might supplemented extender locations expand coverage throughout house home top line desktop wifi setup throughout house above suggest netbook supplement base computer move kitchen bedroom our travel computer homes generally split time long months top portable move between homes desktop traveling use netbook generally try go someplace month during year utah london southern califand rent apartment condo take our netbook gettting ready move our summer home our winter home main portable packed loaded car using netbook main computer external keyboard mouse location high speed internet through cable via dsl locations cisco valet higher powered valet use location extneder cisco soon replaced use summer homea hawking easier setup cisco works too
14103	134	501210	5009572	5009403	sidsen	10/16/10 4:29 AM	1.28720334E12	yes bit misleading agree	formula case buy high spec laptop years next business day international warranty got myself singing dancing docking station port replicator facilities additional cards etc etc ever needed facility monitor die plugging set external speakers completed requirements desktop location result awesome remember pc famously reliable item andor bullet proof sales service apart high capacity gb usb stick usb hard disk fulfils backup needs using good sync software sync documents stick hd pc regularly insurance against catastrophic disaster keep entire pc disk image partitions large capacity usb hd many image backup software allows nowadays automatically incremental backup original disk image before switches pc off using defragment software works during inactive periods manage keep head above water once week file cleaner utility clean sorts temporary log uninstal files nowadays neverendingandcontinuallytweaking modern software updates pumping longer travels carry laptop usb drives image restore boot disk whether case history suit plenty experts within our community who find solution humbly look forward their erudite sensible advice
14103	135	501210	5009587	5004798	queenidog	10/16/10 5:42 AM	1.28720772E12	retired	retired wanted ultimate computer found computer bought full tower fastest intel processor raid drives main computer super surfing net over wired connection lots engineering projects send many emails computer love mobile bought little acer netbook computer love take thing everywhere tap wifi systems over area including own wifi network wife asks question something whip netbook sleep mode couple minutes googled answer rd crappy dell laptop given use weather station server cnc recommend getting fast stationary computer wires small netbook tiger direct offers incredible deals fast gaming computers barebones parts complete systems best price netbooks computers easily bought budget brian
14103	136	501210	5009606	5004798	cleomc	10/16/10 6:04 AM	1.28720904E12	go tower pc	being retired going end computing home desk airplane far off hotel need great pc nice big monitor something sturdy laptops motorcycle nice big tough reliable car truck mention wires disadvantage takes few minutes connect monitor printer tower little minutes ow equivalent laptop far wires concerned work describe going add scanner perhaps phone stuff adaptor network etc hooking laptop leaves obvious wires over place avoid couple wires gaining lot nuisance inconvenience need spend great computer unless thinking apple save extra thousand printer scanner good speakers sofweare several years print cartridges supplies bottom line hot running little laptops their place headache george
14103	137	501210	5009612	5004929	pixelriffic	10/16/10 6:35 AM	1.2872109E12	definitely agree saving money future upgrades	poster suggesting spending around saving rest later right go farther way buying computer puts apple pretty picture great machines spend similar performance pc world definitely recommend desktop over laptop portability issue responsive desktop larger display price range netbooks neat primary computer display too small might look custom built machines systems built local shops using stock cases system components while machines bear familiar brand names dell hp advantage allowing computer upgraded without replacing entire unit
14103	138	501210	5009621	5004798	Rob10	10/16/10 6:50 AM	1.2872118E12	many great suggestions heres take	hi brian pages pages great posts far should run across take question computer expert moderately knowledgeable user bought dell dimension desktop computer typing taught myself how use upgrade various parts lot help forums various internet sources experience macs tell platform go whatever comfortable experience personal speculation vote desktop few reasons reason being room put components might compromise space allinone laptop might room bigger fans air space efficient cooling therefore longer component life mentioned desktop using desktops easily upgraded added larger hard drive originally came whopping gb lol swapped cd burner dvd burner added multi usbfirewire port card people upgrade their video card point aio requires lot work desktop decide nicer keyboard laptop forget monitor bigger need repaired desktop easier unless add second monitor allinone laptop youre stuck youve got imac screens nice needs repair whole computer must go wires monitor wires saving allinone laptop plug peripherals least desktop floor keeps sight besides add external backup secondary drive desktop easily laptops aios everything done wifi must done wire try finding internal tv tuner backup hd blueray player imac asthetics computer mainly screen keyboard choices desktop cost making things small enough fit aio laptop case quality components tend bit pricier bet aiolaptop run similarly speced desktop budget buy pretty nice computer printer guy who recommended uploading walmart printing needs nuts lee said chances last computer guaranteed never future technology holds how needs change having said buy today last long possible id buy desktop over aio laptop needs change theyre easier upgrade someone same repairs access their business line id look something dell optiplex bunch corporate stuff need theyre built last while dells business side tech support tends decent especially opt prosupport north american short wait times
14103	139	501210	5009629	5004798	j_cat	10/16/10 7:29 AM	1.28721414E12	laptopdesktop	found toshiba laptop computer reliable uses low power generates little heat laptop going yrs failed daily use pictures editing problem computer desktop use video editing computer many fans keeps componets cool video editing being done need desk top type work use ghz processor sata hard drives computer ever go internet case runs windows xp fast unnecessary programs load video work laptop way go access internet use comunications pictures work bill paying shopping laptops use little power low cost operate desktop size cooling required video work uses power
14103	140	501210	5009645	5009515	AneSW	10/16/10 7:41 AM	1.28721486E12	necessarily sonew	point replying reading smooth responses compatible people sudden post shows please cannot contribute beneficially thanks
14103	141	501210	5009639	5005006	lewisedge	10/16/10 8:18 AM	1.28721708E12	great advice	opinion advice spoton surprised didnt challenge last computer part todays standards age relatively young myself determined remain young heart confident long way last computer twelve years ago built wellconfigured midtower computer yearold friend modest upgrades he enjoyed excellent service computer full ten years age he finally ready buy his last computer sought advice regarding how proceed hes yearsold going strong thanks miracles modern medicine good lifestyle choices old friend outlast stateoftheart computer he bought years ago
14103	142	501210	5009672	5009403	multimedia1	10/16/10 8:22 AM	1.28721732E12	NIL	setup asus quad core asus hdmi extended desktop bose companion ii connected through second monitor seagate gb rpm flex pro usb backups seagate usb notebook pc adaptor less setup allows audiovideo connection single hdmi cable provisions full backup desktop equivalent performance easily take road previous computers were built last cost nearly before through performance test flight simulator runs flawlessly settings set maximum never could before machine convert
14103	143	501210	5009684	5009399	meandshadow	10/16/10 8:36 AM	1.28721816E12	mabook pro vspc	imho true colors mac computers saying macs expensive true unless compare bottom line pcs higher end pcs run same batteries year old macbook battery lasted least hours laptop intended start charging battery empty running battery full same true little less time toshiba satellite owned previously matter prefer windows mac os linux run macbook pro run pcs run os ar preferences good laptop extension hd possibly external monitor viewing space great photovideo editing machine versatile desktop kind unless netbook go along someone presently own mac theyd wrong use rugged pc reliability road unfortunately doesnt run os linux good alternative
14103	144	501210	5009685	5004798	pyrrhus55	10/16/10 8:37 AM	1.28721822E12	best worlds	pcs mac pro pcs laptops problem laptops lets face itour eyes mac pro large lcd monitor easy eyes mac pro being desktop easily upgraded case last longer expect wish ones laptops harder work less upgradable general mac pro hard drive partitioned once partitioned run mac os windows os mac pro runs pc strategy games pcs loaded crucial ram working mac pro dream while mac pro tends rather expensive quality extremely adaptable machine
14103	145	501210	5009669	5005006	jlloyddavies	10/16/10 8:41 AM	1.28721846E12	last computer	context understand valiant attempt plan future excellent posts already made give good advice however pedigree rolls royce choice technology changes too fast laptops should avoided sold attractive terms fail too frequently wires far best connection method ameliorated good commonsense planning eg location machine printer power supplies available type desk multi level etc hope helps made every mistake book twice came conclusion commonsense planning best
14103	146	501210	5009689	5004913	cunclelee	10/16/10 8:50 AM	1.287219E12	nt gateway allinone love specs	NIL
14103	147	501210	5009707	5005130	cunclelee	10/16/10 9:28 AM	1.28722128E12	gateway	gateway allin computer love retired years old wanted nice computer love gateway bedside cart bedroom wanted something without wires big viewing monitor specs processor amd athlon ii dualcore processor ghz mb cache operating system genuine windows home premium bit memory mb ddr dualchannel mhz memory gb memory hard drive gb rpm sata video integrated ati radeon hd graphics display hd widescreen ultrabright lcd resolution multitouch optical drive dvd supermulti doublelayer drive wireless keyboard wireless optical mouse network gigabit ethernet lan rj port wireless network bgn wifi certified monitor looks bigger brighteasy eyes love touch screen technology consider gateway allinone
14103	148	501210	5009717	5005587	dreamngtree	10/16/10 9:30 AM	1.2872214E12	rule laptops	bought laptop dell screen works fine hard drive died bought desktop over year ago laptop reliable course windows vista read review regarding battery reliability varies laptop models buying windows pc maybe wait until kinks worked windows before buying
14103	149	501210	5009719	5009685	Rob10	10/16/10 9:35 AM	1.2872217E12	pyrrhus	must seen gentlemans budget macpro nice way overkill exhorbitant price
14103	150	501210	5009727	5004798	airul1101	10/16/10 10:20 AM	1.2872244E12	check	alienware laptop good power laptop
14103	151	501210	5009734	5009639	JCitizen	10/16/10 10:35 AM	1.2872253E12	true	friend live hundred four pun intended birthday ditty piece advice use hardware firewallrouter least usb connection capable acting print server way he he wants wireless he doesnt necessarily buy wireless printer hardware firewall necessary todays security threats having print server capability could kill birds stone most good routers excellent instructions completing connection print servers wouldnt hurt operation system bit way he wont left behind bit dust many person suffered back bit windows came having convert computer os reality clients buying bit machines things working flawlessly long win snow leopard ubuntu vista pits matter absolutely problems finding best applications run bit those operating system problem running emulationwine xp mode anyway
14103	152	501210	5009735	5009587	JCitizen	10/16/10 10:40 AM	1.2872256E12	cnc	gotta respect engineer makes his own mods using code
14103	153	501210	5009762	5004974	Ruth OConnor	10/16/10 11:19 AM	1.28722794E12	last computer	hello owned third laptop years expect keep going sometime plan celebrate th birthday said need computer meantime viewpoint lthappy usagt given best advice believe those us need focus practicability efficiency re our particular needs people use computer web others photography digital imaging including advanced pshop cs sophisticated slideshows case photodex producer roxio audio recording editing digital image duplication format such vhs dvd called heavy graphics etc someone uses their computer web personal functions such bookkeeping etc ie microsoft office choose computer isnt challenged graphics conclusion external hard drive must thats story thank time lady
14103	154	501210	5009746	5004798	B1nmidm0	10/16/10 11:21 AM	1.28722806E12	theres such thing our last computer	small advice buy computer comfortably afford thats hopefully top far power goes today hopefully youll years really great service investment far buying last computer how thats possible anymore thanks ever expanding computer market components hitting market each month always look machine today everything today hopefully allow growth tomorrow meanwhile enjoy ride keep expanding our tech lives keep adding piggy bank next great purchase youll looking years
14103	155	501210	5009747	5009645	JCitizen	10/16/10 11:38 AM	1.28722908E12	hes right	guy says he wants his last computer he gets laptop he going able upgrade processor such laptops aware exist id lay bets cost prohibitive impossible replace graphics adapters without going motherboard lets fact painting self corner buying laptop guy enough last quite few years admit laptops hold value he could probably sell someone buy wonder how long market last though
14103	156	501210	5009758	5004798	maidensolo	10/16/10 11:51 AM	1.28722986E12	last really work progress	work progress computer world constantly changing long growing changing technology buy yourself really nice case wont tired looking invest nice monitor use monitor house including television keep insides case constantly changing way always last computer maidenslolo
14103	157	501210	5009765	5004798	AnthonyNYC	10/16/10 12:03 PM	1.28723058E12	off plan being last	editing video during retirement especially hd require fast processor decent video card system good cooling run hours overnight renders transcodes video files space adding storage ram laptop wouldnt handle heat less powerful power supply probably wont good job general purposes suggest buying decent desktop around saving possibly putting away year saving say years time should original spend newer technology isnt dreamed yet probably cost less performance goes price gone down pc industry beginning way arent limiting yourself outdated equiptment years something look forward good luck retirement enjoy
14103	158	501210	5009800	5009765	LucJPatenaude	10/16/10 12:53 PM	1.28723358E12	thank adding post	made th october whole week ago exactly type once good work post yours
14103	159	501210	5009803	5004798	94520shatto	10/16/10 1:16 PM	1.28723496E12	last really	major considerations computer always bought computer become obsolete windows xp serviced good microsoft too end youll discover things longer work properly etc easier simply computer cost fraction computer using
14103	160	501210	5009839	5004798	batvette	10/16/10 4:43 PM	1.28724738E12	poor brian opens box pandora	poor brian opens box pandora everyones different idea best few said brian assume last computer while true year old dell dimension gets internet fine stores digital photos probably years things cannot ever need loop technology arent concerned portability stick desktop format simply reliability laptops especially beefing factorys measly cooling system emphasize enough put enough cooling allow work until warrantys over let dirty step add blower fan blower develop pressure case exhaust add intake fan case filter keep cleanmake airflow upgrades fighting factorys airflow scheme augmenting keep case clean options upgrades laptops someone said laptops issues components overheating wouldnt sold say laptops didnt issues components overheating theyd almost working today least ones didnt dropped beer spilled wouldnt dozens laptop coolers market end over hundred posts people arguing over works best right answer really answer question find gleaning information posts
14103	161	501210	5009848	5009621	batvette	10/16/10 4:47 PM	1.28724762E12	year old dells	too huh typing dell dimension got secondhand years ago added couple fans most reliable computer ever though good games made through couple laptops desktops ones bulletproof
14103	162	501210	5009860	5004798	batvette	10/16/10 4:57 PM	1.28724822E12	apples oranges	lets fair comparison most pros cite macpro true desktop pcs pcs software selection give bang buck desktop reliable adaptable laptop sorry buy applecorps take bite consumer every turn way doing business way handle their itunes way buy quicktime pro usable features scam those who drink apple koolaid seem realize offense macpro power say wrong money burn kind brand loyalty
14103	163	501210	5009862	5004798	magnusfl	10/16/10 5:02 PM	1.28724852E12	laptop desktop	answer desktop laptops great functional desktop upgrade connectivity department most desktop best answer single computer solution function price fact reason laptop best single computer need mobility high mobility come high risk data loss due damage cords issue tower issue video editing picture taking need ton hard drive space tower put internal however laptops need extra external drives thus creating cable mess trying avoid desktop space required slower access data laptop graphics severely limited grades imposable
14103	164	501210	5009853	5004798	Omieof4	10/16/10 5:27 PM	1.28725002E12	laptops vs desktop macs lifetime	laptops years told savvy tech he turned his laptop off he bought goes mode requires little heat toshiba satellite doesnt heat older husband desk top replaced times years save expect computer last years great laptops cost recall brand top rated go price quickly people love lot pictures use irfanview free program quickly lot editing pictures adobe print shop add laptop irfanview allows check irfanview program extra downloads others said macs way go relearn way works take change last buy nothing lasts lifetime unless
14103	165	501210	5009880	5004798	srijanindia	10/16/10 6:13 PM	1.28725278E12	were	budget heres id id buy desktop experienced allinone touch screen feature actually negative while editing pictures grows older tap mistake always happen disastrous results inclined go allinone look way necessarily big brand specs applied desktop allinone processor professional processor semipro serious amateur exclusive graphics handling capacity least gb least gb hard drive additionally go portable laptop tb external harddrive costs less nowadays network set three synchronize data end day place laptop docking station network happy arrangement havent talked operating system always felt personal choice convenience
14103	166	501210	5009947	5006094	batvette	10/16/10 9:52 PM	1.28726592E12	lead free solder worst	someone who certified micro wire bundle repair aircraft navy years ago done numerous competition grade installs car audio meaning solder sleep must say lead free stuff absolute garbage wont buy wont use hate stuff
14103	167	501210	5009962	5004798	jdempsey04	10/16/10 10:32 PM	1.28726832E12	nt valued where ever buy clubs best	NIL
14103	168	501210	5009969	5009572	Samuel.M	10/16/10 11:44 PM	1.28727264E12	good advice	advice sid contemplating go myself laptop got yr international warranty software use syncing imaging questions ask related forum
14103	169	501210	5010031	5009848	Rob10	10/17/10 4:49 AM	1.28729094E12	older dell dimensions	between virus scanners windows defender godknowswhat running background flash video huge photo files thing starting feel pretty slow sometimes gotta say batvette kind computer dell built reliability reputation
14103	170	501210	5010033	5004798	Rob10	10/17/10 4:58 AM	1.28729148E12	amen	exactly figure why apple never bring back midprice tower might gentleman could use reasonably priced pcs too comparable overcharging stick too easily high margin macpro sales take big hit too
14103	171	501210	5010050	5004798	Rob10	10/17/10 5:09 AM	1.28729214E12	something good specs	forgot mention way most life fropm purchase besides buying quality desktop place getting speced towards top whats available far cpumotherboard usb capabilities while desktops upgradeable why theye way go few years difficult too expensive upgrade key components starting speedy pc start insure feel faster current went budget configuration
14103	172	501210	5010066	5004798	waytron	10/17/10 6:18 AM	1.28729628E12	final	sorry kick late thread receive last weeks newsletter unaware question until looking best value money portability issue desktop computer best bet find unlikely last computer unless planning early exodus budget should fine need spend nearly great computer last years plenty money left over purchase tower later replace hard drive part routine maintenance program really reason last longer standard desktop computers separate tower monitor value allinone computers laptops ability upgrade things video cards memory processors add features usb usb arrives break pretty unusual days desktop computers easier cheaper fix their smaller counterparts added bonus configuration purchase relatively decent monitor good chance able keep simply replace tower next time less money reason spend unless huge gamer starting business video editing bother external hard drives flash drives backup simply sign online backup carbonite mozy complete setit forget approach backing precious photos dvd backups really feel need additional backups computers automobiles spend bragging rights wow factor necessary spend lot excellent system last many years perform tasks asking always faster computer technology advancements forever continue render yours obsolete week buy general business recreational computer user most us need processor gb ram money burn fine go recommend processor intel processor fine prefer intel over amd personal preference most people perfectly happy anything dual core memory gb memory plenty really unsure always increase later video definitely discrete video card need spend plenty video cards under job dual video outputs hdmi great extras should ever decide add second monitor connect computer large screen tv keep mind desktop tower something upgraded later needs change drastically hard drive hard drives keep getting bigger unusual find terabyte drives larger standard average user anything over gb usually plenty totally dependent how data plan store something fairly easy upgrade should require storage down road tower form factor recommend full size tower midmini tower stay away slim line small form factor machines upgrading difficult replacement parts scarce expensive tend cool full size towers optical drives unless going primary video watching entertainment center need blueray drive regular dvd rw drive fine allow read write dvds cds separate drives nice plan lot disk copying soundaudio most computers come int egrated audio unless specific audio needs beyond most users need upgrade separate sound card media reader typically option find worthwhile especially photography allows read camera memory card directly computer monitor where spend little extra most people keep monitor longer period time computer tower itself tend reuse either future computers pass down family members aging eyes myself recommend larger display really treat nothing running dual displays life little easier especially comes working photos editing tools photo collection screen working area maybe working photo slide show screen while reading email surfing internet dragging photos clipart video screen few upgrades productive dual displays extended warranties service contracts extended warranties really personal choice usually real value most desktop computers andor low end laptops however many situations where programs their value example consider extended plan real road warrior high end laptop laptop repairs expensive single repair cost purchasing mac pretty need purchase apple care program purchase plans pay close attention actually covered cover manufacturers defects happens drop cover software problems virus infections happens need service inhome service computer shipped back factory service center how long without computer many clients find finally problem need service either covered going take weeks back most plans cover data computer needs go back service often told take local shop backup hard drive before sending computer back service responsible data often wipe data reinstall windows part repair service hp notorious how spend money play cards right could easily nice desktop laptop under put extra money aside pay online backup upgrade tower few years good luck happy computing dana wayland computer
14103	173	501210	5010068	5009719	pyrrhus55	10/17/10 6:22 AM	1.28729652E12	rob refurbished	rob refurbished macpro between dollars thats how could afford crucial ram roughly cost apple ram allowed link vendor forum
14103	174	501210	5010141	5004798	HarryAnderson	10/17/10 8:18 AM	1.28730348E12	buy	cents recommendation buy laptop desktop headhunter working home computer setup allows comfortably use resources dell laptop access gateway desktop using microsoft remote desktop software already included operating system laptop exactly desktop access internet email files reside desktop using laptop laptop work room including bathroom deck kitchen network configuration desktop laptop high speed connection wireless modem printerscanner desktop located home office always programs databases peripherals data desktop available via laptop automatically backed setup need duplicate programs laptop everything desktop email desktop own server remember actually working desktop using laptop dumb terminal need duplication time goes fully appreciate value having computers work bed saturday morning using laptop picture sitting deck sun shining birds singing having lunch client calls phone number appears laptop put down fork answer phone cannot enjoy same freedom desktop desktops great anchored permanent spot buy harryandexcom
14103	175	501210	5010133	5009587	HarryAnderson	10/17/10 8:28 AM	1.28730408E12	agree too buy	should read message before posted mine cents recommendation buy laptop desktop headhunter working home computer setup allows comfortably use resources dell laptop access gateway desktop using microsoft remote desktop software already included operating system laptop exactly desktop access internet email files reside desktop using laptop laptop work room including bathroom deck kitchen network configuration desktop laptop high speed connection wireless modem printerscanner desktop located home office always programs databases peripherals data desktop available via laptop automatically backed setup need duplicate programs laptop everything desktop email desktop own server remember actually working desktop using laptop dumb terminal need duplication time goes fully appreciate value having computers work bed saturday morning using laptop picture sitting deck sun shining birds singing having lunch client calls phone number appears laptop put down fork answer phone cannot enjoy same freedom desktop desktops great anchored spot buy harryandexcom
14103	176	501210	5010153	5004798	chf_2258	10/17/10 9:16 AM	1.28730696E12	laptop docking station	suggested why windows based laptop docking station might avoid mac riyadh support maybe issue idea external harddrive maybe desktop storage upgradeability laptop portabilitynetwork swap files
14103	177	501210	5010258	5004912	Master3203	10/17/10 2:01 PM	1.28732406E12	way mac	mac cheao software hardware costs bundle buy windows laptop go mac
14103	178	501210	5010278	5004798	Master3203	10/17/10 2:15 PM	1.2873249E12	suggestion	though wish loads wires strongly suggest desktop pc processor likely run smoother desktop laptop video cards interchangable desktop motherboards opposecd laptop motherboards video editing need highend graphics card need high amount ram cope video editing mb gb suffice check ram technology motherboard supports however ddr ddr operating system advise windows ultimate operating systtem good handling vide film editing large hard drive maybe should around tb cddvd advise getting bluray rw recordable drives watch hd movies perform disktodisk copies easily power supply rating should powering many different devices easily motherboard should onboard satav ports pci express slots expansion
14103	179	501210	5010342	5004925	LB	10/17/10 4:56 PM	1.28733456E12	question regarding macs	macs bootcamp installed andor vmfusion parallels installed worlds fingertips pc mac ljb
14103	180	501210	5010383	5010133	batvette	10/17/10 7:58 PM	1.28734548E12	called	picture sitting deck sun shining birds singing having lunch client calls phone number appears laptop put down fork answer phone cannot enjoy same freedom desktop should saved money bought phone caller id lol perhaps left something
14103	181	501210	5010517	5010068	Rob10	10/18/10 5:12 AM	1.28737872E12	hit miss	probably hit miss far price apple happens hand refurb pros moment under tax close his budget over machine thats probably unnecessary his case really too bad apple refuses true desktop reasonable price pro bought couple years ago believe brian aios imac expensive compromise where youre stuck screen life computer worse instead ill keep shopping windows desktop myself
14103	182	501210	5010508	5004798	stonesra	10/18/10 5:33 AM	1.28737998E12	ultimate pc	semi retired bangkok imported pc ibm pc thailand wrote programs basic major use computer running consultancy business retired writing workhorse aging camel intel pentium win pro ms office pro plus visio working everyday producing message ferrari main battle tank viruses worms died nobody writing ones hes clinically clean without need antivirus program said run spybot magicspeed regularly resisted temptation getting models principle long camel faster handle wont fall speed trap resisted xp vista ultimate machine thing teases often cut long story short settled last week desktop intel core tb hdd gb ram loaded legal win office plus visio led screen need preserving eyesight son insisted unpacked cartons home put system together great fun little less usd exploring programs hardware machine transferring entire document folder camel ferrari use firefox gmail machines use outlook camel concern how backup store gmail trust something physically posses never cloud computing answer young friend own soul searching analysis usage requirement honestly ignore trend could respond earlier busy toy jason stone thailand
14103	183	501210	5011281	5004925	brainkanif	10/19/10 7:17 AM	1.28747262E12	final computer	thanks lee idea getting laptop desktop hadnt crossed mind external hard drive logical thanks help brian
14103	184	501210	5011285	5005254	brainkanif	10/19/10 7:33 AM	1.28747358E12	final computer	thanks responding many great replies opt tower large screen monitor brian
14103	185	501210	5011291	5004798	brainkanif	10/19/10 7:39 AM	1.28747394E12	final computer	many thanks lateral thinking thinking too brian
14103	186	501210	5011304	5004798	brainkanif	10/19/10 7:48 AM	1.28747448E12	final computer	thinking liked sony allinone series searched riyadh stores available riyadh could mail order jeddah hesitant commit mail order having got great advice many cnet members inclined towards desktop large screen appreciate comments brian
14103	187	501210	5011294	5004798	brainkanif	10/19/10 7:53 AM	1.28747478E12	final computer	thanks practical advice learning everybodys answers leaning towards desktop large screen appreciate advice graphic cards thought needed top graphic card info re editing video etc helped appreciate comments brian
14103	188	501210	5011299	5004798	brainkanif	10/19/10 8:09 AM	1.28747574E12	final computer	harv response education before reading comments already come conclusion sound advice members probably tower large monitor agree computer shopping minefield why sought advice cnet members swayed logos machine look enjoy bit shopping mind thinking maybe shouldnt spend budget go many suggested whatever computer opt life span limited thanks info definitely helped veer away putting budget laptop brian
14103	189	501210	5011309	5004798	brainkanif	10/19/10 8:20 AM	1.2874764E12	final computer	thanks indeed appreciate practical specific advice especially advice windows limitations lots good advice many members leaning towards tower large screen reality check who off wife wouldnt accept recommendation lack technical expertise buy her nice machine she trusts her own judgement opting netbook around experience point trying change her opinion brian
14103	190	501210	5011332	5005130	brainkanif	10/19/10 8:31 AM	1.28747706E12	final computer	thanks input working home need too mobility having read lots good advice members leaning towards tower large screen practical suggestions wireless options teach maybe wont too many wires deal novice photograhy video editing areas really looking forward workingplaying picturesvideos pleasure relaxation appreciate reply brian
14103	191	501210	5011360	5004974	brainkanif	10/19/10 8:45 AM	1.2874779E12	final computer	many thanks advice best received many many responses havent read yet particular hadnt thought getting separate large monitor makes sense thats where enjoy end products our editing appreciate info quad core processor wireless router lean towards suggestion tower large monitor allinone concept too mainly aesthetics large screen having read others comments feel enroute headaches machines reality check energy drive dad far ahead brian
14103	192	501210	5011362	5005006	brainkanif	10/19/10 8:58 AM	1.28747868E12	final computer	charles received great advice many members havent yet gone through contributors comments advice answered questions definitely going go tower large monitor follow advice wireless technology particular appreciate detailed specific suggestions made might meet needs invaluable comments allinone needs servicing tips made confident recommendations meet needs wont cry purchase appreciate time effort made makes wonder why cannt peace world such good exists between most us brian
14103	193	501210	5011511	5009528	brainkanif	10/21/10 12:46 PM	1.28766516E12	common sense	thanks reality check agree entirely knowledgeable technical specifications practical leaning towards desktop something high quality monitor moderately specified ibm laptop past years working fine meets most needs something capable pictures video files learning many solutions ingenuity replies generosity people offering helpful advice makes feel humble learned lot forum havent read comments brian
14103	194	501210	5011517	5004798	brainkanif	10/21/10 12:49 PM	1.28766534E12	old laptop	thanks robert many thought provoking suggestions coming around idea desktop high quality large monitor wont really need portability retired brian
14103	195	501210	5011526	5004798	brainkanif	10/21/10 12:55 PM	1.2876657E12	macmini ipad	thanks food thought hadnt thought ipad others too made worthwhile suggestion brian
14103	196	501210	5011543	5004798	brainkanif	10/21/10 1:03 PM	1.28766618E12	refurbished macbook	thanks getting refurbished products sent saudi arabia too adventurous idea though apple care protection suggestion practical leaning towards fixed desktop quality monitor really need portability education read comments learned quite lot forum relaxed computer shopping maybe wont final computer brian
14103	197	501210	5011561	5004798	brainkanif	10/21/10 1:12 PM	1.28766672E12	road convenient	thanks advice learning many responses posted certainly suggestions backup made really need portability leaning towards desktop high quality monitor brian ps shoot mp pictures day camera shopping soonb
14103	198	501210	5011572	5005741	brainkanif	10/21/10 1:26 PM	1.28766756E12	save day	thanks suggestions others too advised spend budget machine leaning towards suggestions variety responses generosity people responding humbling old ibm laptop meets most daily needs intend keep using capability faster machine nice monitor suggestions made leaning towards fixed desktop large monitor money kitty others suggested probably wont last computer either hope right brian ps paid custom built computer years ago age caught remember exact specifications step windows
14103	199	501210	5011587	5004798	brainkanif	10/21/10 1:41 PM	1.28766846E12	toshiba family	thanks advice learning lot suggestions people offered retire portability necessary howeverwhen mentioned toshiba reminded reasons submitting question forum verge buying top range toshiba qosmio model desktop replacement dollarssaudi arabia priceswith windows home edition nothing else loaded liked look machine specifications were class however felt little unease best use budget really glad asked question many possible solutions moment leaning towards tower machine high quality large monitor using wireless technology where feasible surrounds shouldnt too cluttered wires toshibas fine machines brian
14103	200	501210	5011589	5004798	brainkanif	10/21/10 1:48 PM	1.28766888E12	happy retirement	thanks comments seem several issues laptops suggestions received leaning towards desktop high quality large monitor wont really need portability really appreciate generosity people shown their time responding question brian
14103	201	501210	5011604	5004798	brainkanif	10/21/10 1:58 PM	1.28766948E12	best system	thanks helpful suggestions large number responses received many possible solutions leaning towards desktop large monitor wireless technology possible opt windows pro restore capabilities familiar windows software really change systems portability big issue suggestions made maybe compromise high end tower buy tower laptop budget surely education read through responses simple questions books written anyway havent finalized decision shopping purpose thanks brian
14103	202	501210	5011596	5004798	brainkanif	10/21/10 2:10 PM	1.2876702E12	best answer	thanks right look apples models riyadh prices higher usa look specs models over were selling discounted models core duo technology within budget hesitated wasnt meet photo video editing tasks suggestion apple ipad nice made rethink compromises stage leaning towards tower high quality monitor wireless technology reduce clutter wires thanks brian
14103	203	501210	5011598	5004798	brainkanif	10/21/10 2:13 PM	1.28767038E12	humble advice	thanks many suggestions received leaning towards desktop large monitor using wireless technology avoid clutter wiresbrian
14103	204	501210	5011609	5009260	brainkanif	10/21/10 2:17 PM	1.28767062E12	NIL	thanks food thought many responses must change attitude dead yet final computer many solutions thinking maybe shouldnt spend budget time certainly learned lot posing question brian
14103	205	501210	5011611	5004798	brainkanif	10/21/10 2:23 PM	1.28767098E12	imac	yes agree imac beautiful core way over budget city riyadh keen amateur photographer interest selling pictures while imac dream leaning towards tower hd monitor wireless technology reduce wire clutter someone else suggested buy ipad tower possibilities thanks yo ur comments brian
14103	206	501210	5011621	5009255	brainkanif	10/21/10 2:26 PM	1.28767116E12	NIL	thanks inclined agree mother suggestions received leaning towards tower high quality monitor wireless technology reduce clutter brian
14103	207	501210	5011618	5004798	brainkanif	10/21/10 2:36 PM	1.28767176E12	cents	thanks lot advice looking concise clear specific several great responses many possible solutions leaning towards custom built tower large hd monitor wireless technology reduce wire clutter where possible photography video skills modest specifications good enough pass onto next genearation having said attitude changed submitting question dead yet final computer maybe settle modest specification ipad show off pictures everday good day really enjoyed responses were contributed brian
14103	208	501210	5011641	5004798	brainkanif	10/21/10 2:49 PM	1.28767254E12	NIL	thanks having received lot great suggestions many possible solutions several people made same suggestion agree maybe foolish put eggs basket leaning towards tower large high quality monitor wireless technology reduce wire clutter mention family members give reality check indeed relevant funnily enough suggested half buy allinone machine share turned down sharply response pick own laptop thank decided follow own dreams hence asked question responses educational valuable entertaining thanks brian ps didnt figure stood reading between lines meant spouseb
14103	209	501210	5011633	5009317	brainkanif	10/21/10 2:51 PM	1.28767266E12	core	thanks excellent suggestions back yard sunny day gives food thought brian
14103	210	501210	5011636	5004798	brainkanif	10/21/10 2:55 PM	1.2876729E12	fianl computer	thanks lot many thought provoking suggestions comment must too easy taken sales talk specifications look machine suggetions sent inclined favour tower large monitor wireless technology reduce wire clutter many suggested budget should tower laptop flexibility made reconsider brian
14103	211	501210	5011688	5011517	JCitizen	10/21/10 4:12 PM	1.28767752E12	friendly suggestion	hit reply button persons post address wont talking posting way back discussion worry us were newbies once
14103	212	501210	5011678	5011636	JCitizen	10/21/10 4:15 PM	1.2876777E12	friendly suggestion	person reply hit reply his post right below person reply hitting back discussion where watching were newbies once
14103	213	501210	5012078	5004798	Lee Koo (ADMIN)	10/22/10 10:27 AM	1.28774322E12	thank note brian	hi everyone wanted pass along thank note original author question brian saudi arabia thank brian email means lot us thank following cheers lee email brian lee leave process reading correspondence final computer amazed good generosity many strangers wanting offer benefit their experience education learning such things leadtincoresolder motherboards how affect life machine having read many wise practical suggestions leaning towards desktop large monitor try avail wireless technology minimise wiring clutter such good amongst us wonder why isnt peace world responding contributors coming days meantime thank who contributed brian
14103	214	501210	5012210	5012078	JCitizen	10/22/10 1:33 PM	1.28775438E12	welcome	clicking reply message why showing indented directly under latest post
14103	215	501210	5012212	5012078	JCitizen	10/22/10 1:36 PM	1.28775456E12	help him lee	letting him how post thanks
14103	216	501210	5012225	5004929	brainkanif	10/22/10 2:08 PM	1.28775648E12	final computer	thanks good practical advice read contributors unsure become learned maybe best spend budget computer realise last brian
14103	217	501210	5012236	5004969	brainkanif	10/22/10 2:24 PM	1.28775744E12	importantly	thanks interested power needed gaming good advice leaning towards desktop monitor wireless techology where feasible learned shouldnt thinking terms final computer maybe need keep budget day brian
14103	218	501210	5012701	5004798	cwhitcomb	10/23/10 9:50 AM	1.2878274E12	yr old retired photog answer	time ciba chrome rage doing photos graphics pc running anything microsoft pain done time bu frustrating heck suggest macbook pro external inch monitor plain old photoshop suite small tablet external drive backup huge files off go those who insist pcs cheaper same thing need really add actual costs run xp vista windows must reason old photog making photos counts wanted camera feel automatic hands same computer simple slick automatic figure every step program hit print expect got canon color printer inks great boon getting nice snaps really nice finally tablet luxury spot retouch bit tablet precise mouse trackpad finally oldest mac use consistantly years old runs version photoshop cs years ago prints wirelessly everything usually use macbook pro difficult intense things really attacking shot piecing together several large photos etc hard pressed find anyone running year old pc wouldnt allow operating systems mess mine running osx having blast key viruses bloated junkware spam spend time
14103	219	501210	5012705	5005345	cwhitcomb	10/23/10 9:52 AM	1.28782752E12	macs jpg rawpngtiff anything wish	macs problem graphics world cameras
14103	220	501210	5012697	5005159	cwhitcomb	10/23/10 10:00 AM	1.287828E12	mac laptop external usb external inch monitor tv	unless fellow computer guy who camera versus photographer who computer use pc tower mac tower matter time macbook pro really outs he pushing anyway huge buttons towers year old mac running osx mac laptops amazing cheap providing everything photographer need except photoshop aperture far useful pc offerings same price besides someone run pc program mac
14103	221	501210	5012758	5011678	brainkanif	10/23/10 11:20 AM	1.2878328E12	friendly suggestion	thanks tip familiar how forum works following hint learning brian
14103	222	501210	5012761	5004798	brainkanif	10/23/10 11:26 AM	1.28783316E12	year old	thanks definitely food thought too hard using camera computer expert either brian
14103	223	501210	5012870	5012758	JCitizen	10/23/10 3:25 PM	1.2878475E12	soooo welcome	look forward discussions cnet
14103	224	501210	5020724	5004798	roosterwes	11/5/10 10:20 AM	1.2889524E12	might good choice	son same things describing along gaming whatever he wants gateway fx find around grand graphics card awesome gtx accesorized glasses etc fun upgrade ram workhorse computer us beautiful piece screen definately changed mind gateway
14103	225	501210	5022708	5012701	brainkanif	11/9/10 4:27 AM	1.28927682E12	final computer	thanks lot practical sensible advice too brian
14103	226	501210	5022718	5009758	brainkanif	11/9/10 4:41 AM	1.28927766E12	philosophical approach	thanks lot variety responses amazed need flexible final computer borrowing phrase talking othersi work progress brian
14103	227	501210	5022775	5005148	brainkanif	11/9/10 6:32 AM	1.28928432E12	keep simple	great advice appreciate time effort put adviceyou obviously lot experience software hardware printed comments future reference confirmed lot suspicions suites utility programsthanks brian
14103	228	501210	5022921	5005231	brainkanif	11/9/10 8:56 AM	1.28929296E12	laptop	thanks john excellent advice brian
14103	229	501210	5022931	5004798	brainkanif	11/9/10 8:57 AM	1.28929302E12	final computer	good luck too last working day march brian
14103	230	501210	5022927	5004798	brainkanif	11/9/10 9:13 AM	1.28929398E12	personal option	thanks excellent advice giving links evaluate meet needs brian
14103	231	501210	5022943	5004798	brainkanif	11/9/10 9:20 AM	1.2892944E12	desktopphotoshop elements	hanks excellent advice certainly bought wife brian
14103	232	501210	5022938	5004798	brainkanif	11/9/10 9:23 AM	1.28929458E12	mac	thanks advice macs tempting undecided brian
14103	233	501210	5022945	5004798	brainkanif	11/9/10 9:25 AM	1.2892947E12	laptops improve	thanks already dropped line thought many people advised brian
14103	234	501210	5022982	5005382	brainkanif	11/9/10 9:34 AM	1.28929524E12	final computer	really appreciate excellent practical advice given educated helped narrow focus towards decision hp products always impressed view comments look closely best wishes brian
14103	235	501210	5023000	5004798	brainkanif	11/9/10 9:38 AM	1.28929548E12	final computer	thanks appreciate links info especially live little brian
14103	236	501210	5023002	5004798	brainkanif	11/9/10 9:40 AM	1.2892956E12	final computer	tahnks coming conclusion too brian
14103	237	501210	5023015	5004798	brainkanif	11/9/10 9:43 AM	1.28929578E12	monitor buy	thanks excellent advice agree thinking importance large monitor hope too enjoying photography computer age best wishes brian
14103	238	501210	5023033	5004992	brainkanif	11/9/10 9:49 AM	1.28929614E12	final computer	thanks advice hp products inclined towards desktop large high quality monitor brian
14103	239	501210	5023039	5004798	brainkanif	11/9/10 9:51 AM	1.28929626E12	final computer	thanks advice hp products focussing desktop plus large high quality monitor brian
14103	240	501210	5023072	5004798	brainkanif	11/9/10 10:02 AM	1.28929692E12	between rock hard place	thanks lot excellent advice keep coming back suggestions feel comfortable recommendations havent bought yet before christmas best wishes brian
14103	241	501210	5023076	5004798	brainkanif	11/9/10 10:05 AM	1.2892971E12	last computer	thanks practical advice inclined agree sentiments brian
14103	242	501210	5023091	5004798	brainkanif	11/9/10 10:13 AM	1.28929758E12	budget replacement	thanks excellent practical advice good points travelhospital etc while thinking desktop thinking splitting budget going machines best wishes brian
14103	243	501210	5023129	5006142	brainkanif	11/9/10 10:28 AM	1.28929848E12	final computer	thanks excellent advice practical suggestions brian
14103	244	501210	5023140	5004798	brainkanif	11/9/10 10:35 AM	1.2892989E12	final computer	thanks excellent practical suggestions made rethink brian
14103	245	501210	5023943	5010066	brainkanif	11/10/10 12:52 PM	1.28939352E12	final	thanks practicl specifici advice helps narrow choices save money appreciate time effort put helping forgive being late response brian
14103	246	501210	5030420	5004798	graydoog	11/20/10 3:34 PM	1.29026724E12	last mac	bought last computerthe same brand last mac macbook pro tb hd computer trackpad could use easy using mouse love
14103	247	501210	5288543	5009265	High Desert Charlie	3/19/12 4:09 PM	1.33217334E12	username cnet	hi note mention username changed charleswsheets high desert charlie view post subjects under username link subwebaddr thanks high desert charlie
