5218	0	112547	1278670	NR	Steve_R	7/3/05 7:36 PM	1.12041936E12	dell brands highly rated	ok bought dell ready pc havent problems dell purchased years ago dell bad why continuously sell many pcs brands
5218	1	112547	1278747	1278670	AKonny47	7/3/05 9:00 PM	1.1204244E12	lets	abs monarchfalcon northwestibuypowergatewayshuttlevoodooalienwarec tech konny
5218	2	112547	1278818	1278747	nerdyboy1234	7/3/05 10:07 PM	1.12042842E12	re	dat dells bad too good plan upgrade computer gets outdated regular user gamer dells great however upgrade stuff owning dell isnt good buy special power supply dells special connection mobo power supply really expensive arent planning upgrade computer pciexpress graphics card dell fine
5218	3	112547	1278895	1278670	Willy	7/4/05 12:45 AM	1.1204379E12	NIL	years youve dell system dell support truly nose dived alot changed though sell alot systems sheer numbers generate sales thought cause problems however truly say dell really needs improve thier support model plus ever theyre selling home user though past seems far too many users become unhappy slightest cause dells support doesnt improve situation theyre happy users hear squeaky wheel ever imho look decent system cost hard beat look emachines offering pickup decent magazine check whats sale tada willy
5218	4	112547	1279116	1278670	Coryphaeus	7/4/05 7:17 AM	1.12046142E12	opinion	compaqs desktops three laptops worked flawlessly easily upgradable good support graduated home built either canabalized compaqs given kids id buy compaq heartbeat wayne give person fish feed day teach person use internet wont bother weeks click cnet faces learn little telephones internet connections spyware removal data download free software
5218	5	112547	1279136	1278670	R. Proffitt	7/4/05 7:37 AM	1.12046262E12	bad	many high population many dissatified owners percentage measure takes hit become popular consulting dells boring easy machines work gt whats different customers understand software support thing hardware support guess where bad support software problems spyware rootkits virus trojan bad luck software issues where problems people scream most variety name brand machines work makes hard pan anyone save sony bob
5218	6	112547	1279700	1278670	John Robie	7/4/05 3:48 PM	1.12049208E12	dell bad imo compared others wise	course computer builders who off shore support nations expect problems getting usa english translated nations understand british english
5218	7	112547	1281610	1278670	huskerz85	7/5/05 9:54 PM	1.12060044E12	hpcompaq	years weve computing house weve stuck hpcompaq compaq desktops weve rocksolid reliable right down wire dads year old presario powered ancient amd recently gave hell taking presario over newer powered mhz celeron however hp viable brand using hp pavillion notebook past years found rocksolid reliable real workhorse however need move over desktop pretty sold hp machine power value nothing beat hp except possibly emachines
5218	8	112547	1281691	1281610	hpinvent	7/6/05 12:22 AM	1.12060932E12	hp	hp computers best kind dell gateway ibm never let down their support bomb
5218	9	112547	1282143	1281691	AKonny47	7/6/05 8:15 AM	1.1206377E12	nah doubt gateway ibm	gateways tech support best ever made call support free tech chat online solve problem automated either ibm great support worst sony their website terrible finding right drivers such their computers last long time konny
5218	10	112547	1282179	1278670	jcrobso	7/6/05 8:34 AM	1.12063884E12	dell brands highly rated	agree bob pay things dell thier own mb psu designs dell wanted biggest low prices sales reduced service keep profits hp good alternitve dell emachines reasons many us build our own pcs john
5218	11	112547	1285840	1278670	angryfirelord	7/8/05 7:06 AM	1.12080636E12	got few	subwebaddr subwebaddr subwebaddr subwebaddr subwebaddr subwebaddr especially notebooks
5218	12	112547	1290590	1285840	crazeebob2000	7/10/05 11:05 PM	1.1210367E12	puters	owned operated hp emachines puters say theyre best never go down thought
5218	13	112547	1300500	1290590	bglover51	7/15/05 8:41 AM	1.12141686E12	agree emachines	great value money upgraded their construction considerably last few years their reputation bad discovered actually cost efficient build their computers saying most expensive parts actual eye detail construction doing their return rate among lowest industry work topnotch graphics card gaming morethanenough memory computer run right box high degree reliability emachines meet needs daily average user super machines meant doing heavyduty graphics cam work inappropriate gaming most us need computer word processing record keeping ilk recommend emachines fine bang buck computer fyi owned pcs tech support software companies number years often dealt hardware issues owned hps necs house brand pcs most reliable machine current emachine run fine hours day every day over years minute downtime
5218	14	112547	1302211	1300500	daddyo58	7/16/05 6:24 AM	1.12149504E12	desk top	geez most commercial computers always cut corners price point savy systems dell buy system best bet always build build custom systems always offer store best buy etc quote let build custom systems
5218	15	112547	1303450	1300500	lilShortZaznXboi	7/16/05 10:37 PM	1.12155342E12	emachines good buy poor quality	emachines bad quality hds mb cache probally generic ram something refurbed cpusmaybe take seriously
5218	16	112547	1303452	1302211	lilShortZaznXboi	7/16/05 10:38 PM	1.12155348E12	yep build own system	industry standard good quality parts
5218	17	112547	1303802	1303450	AKonny47	7/17/05 8:33 AM	1.12158918E12	how emachines poor quality	alot people forums turned emachines gaming pcs poor quality computer come msi motherboard why use refurb cpus generic ram oem company doesnt use generic ram konny
5218	18	112547	1303869	1303802	lilShortZaznXboi	7/17/05 9:34 AM	1.12159284E12	many people who bought hd problems	emachines works fine ones build own system best option
5218	19	112547	1303872	1303802	lilShortZaznXboi	7/17/05 9:35 AM	1.1215929E12	nt nt alienware doesnt use generic ram	NIL
5218	20	112547	1303956	1303869	damasta55r	7/17/05 10:38 AM	1.12159668E12	re	hard drive wasnt manufacturered emachines
5218	21	112547	1304575	1278670	Gino Gusmano	7/17/05 8:03 PM	1.12163058E12	depends	really depends kind work hps good build quality partial macs need play games youll happy os mac hardware
5218	22	112547	1305124	1278670	angryfirelord	7/18/05 8:37 AM	1.12167582E12	build own forget whole mess	terribly hard learning experience messy rebates either
5218	23	112547	1305523	1278670	John Robie	7/18/05 12:21 PM	1.12168926E12	something chicken egg question	question system best amd vs intel going amd came years ago seems vary every year right prices amds dual core processors higher intel opposite before course tell young gammers value buyers amd try constantly belittle intel few attempt answer question brands dell naturally home built good knowledge quality components being able pick those quality components having someone monarch build factory brands none imo every computer come defectsflaws seem same percentage wise relation amount produce course dell largest producer desktops their higher percentage complaints offshore dealings support personnel perhaps current biggest complaint dell personally deter buying dell understand hp their support off shore
5218	24	112547	1325191	1281610	penncountrygirl	7/27/05 1:05 PM	1.1224695E12	hp sucks	hp computers three hp printers never hp product long live july problems began april taking period months problem computer turn less months old say owe send box pack ship us send back claiming tested computer back missing memory card therefore boot call course send memory chip send computer back send back supposedly testing nonworking computer send back send back guessed doesnt work talk sr quality manager hp executive customer relations management who guarantees working computer send finally send working computer computer long continue use products already paid computers diesit cpu fan failed boot calland told send part though told could easily install cpu fan myself wait box send computer backand wrong computer back call told idea where computer someone call back never called back called claim computer their service center entire time bull havent fixed yet bull need send computer got back before send mine service manager tells he guarantee computer coming back mewhat he refused give anything writing stating computer back doing right thing sending wrong computer back guess hope pray something returnbut guarentee service manager told guarentees life
5218	25	112547	1326512	1305523	Alan Copeland	7/28/05 5:01 AM	1.12252686E12	hp support	while seen offshore pretty good overall find live chat worst install issues scanner were worked eell advanced level support tech sbc dsl support gone india past couple months believe company keeps domestic tech support days soon going keep their prices too high remain competetive
5218	26	112547	1328424	1278670	TONI H	7/29/05 5:12 AM	1.12261392E12	pitfalls discussed	makes good reference future decision making subwebaddr toni
5218	27	112547	1328454	1278670	tickedoffinmi	7/29/05 5:28 AM	1.12261488E12	why go local purchase	hello reading replies people basing most their answers name rather quality system successful small chain computer stores northern michigan systems daily customers daily hear horror stories daily read below recommendation lets start parts game buy big box system idea where parts came rfb request bids issued many times month companies such things motherboards hard drives etc winner rfbs lowest priced supplier willing build part big boxs specs throw lowest bidders box reliable pc hmmmand who made motherboard anyway quality yea most people happy their dell hp emachine etc while runs got year warranty unless invested fortune extended warranty onsite repair need box send back week excurision system fixed systems arent put together assembly line end line qc folks quality control turn power burn bit theyre ok go loose cable badly bolted motherboard issue wont show until folks shipping drop system while loading truck anyway license license big box system windows license xp home pro tied bios chip identification number system lets say years down road thunderstorm motherboard destroyed send manufacturer fee larger paid system place replace motherboard take local computer shop where bill should replace motherboard issue need buy windows license yours wont work anymore bios chip isnt same bios motherboard hundred problems big boxs point thatll bore pants off everyone let suggestion build own how go local computer shop let build system works itll customized surf net play games store mass quantities music etc warranties systems usually manufacturers warranties thats way cpus motherboards warranted years parts usually years memory lifetime warranty license windows xp home pro whatever oem means motherboard breaks replace having purchase license windows continue work little massaging motherboard drivers different type quality quality systems built locally higher big box pay bit itll last use name brand parts cheapies refurbs burn systems hours system leaves customer back warranty issue lose money happens labor give something breaks local built system break desk pound place visit someone yell need wont send india offshore location answers folks go specifics each brand mentioned must buy system take time willing invest custom built name brand products way go must go big box go local computer shop ask repairs informed decision repair breakdown business dell emachines hpcompaq most dell emachines blown motherboards emachines usually hole blasted through bios chip most under years old were quoted manufacturer repair plus shipping fix parts labor windows license oem
5218	28	112547	1328473	1278670	Welby	7/29/05 5:35 AM	1.1226153E12	dell	computers home compaq laptop presario sx years old compaq desktop three years old old clone feel forever additionaly dell office run windows xp newest dell why crashes dell slowest dell continue buy compaq specially laptop
5218	29	112547	1328507	1282143	jparkhill	7/29/05 5:48 AM	1.12261608E12	gateway poor track record	working large corporate environment recall purchase gateway systems experiences over following year period worst problem tech support were hard reach phone treated our desktop support team single user who purchased single pc many attempts support efforts were abandoned were gateway pcs dell kid block everything got simple our team dell pcs worked tech support needed right attitude skills provide assistance expected needed suppose tech support eyes beholder sides discussion often gateway gotta reason too jpark
5218	30	112547	1328534	1279116	mwooge	7/29/05 5:55 AM	1.1226165E12	homebuilts	recommend homebuilding computer need help thing asked brand model say home built answer similarly take machine repair tech brand experience draw he problems components arent compatable should
5218	31	112547	1328545	1328473	allan-a	7/29/05 6:00 AM	1.1226168E12	why dell slow	several friends dells were slow noticed dell ships mb memory insufficient windows xp imo try adding least annother mb open memory slot difference
5218	32	112547	1328721	1300500	OBH	7/29/05 7:24 AM	1.12262184E12	totally agree	running emachines pc practically around clock almost years time problem cdrw went called days pulled old packed send back while dhl driver waited took min machine back running less half hour recently added second hard drive question conflict between instructions came drive manual said machine warranty time email tech support got back within min got thing back running less hour problems probably little self sufficient most home users none horror stories heard manufacturers ill probably emachines pc wears plenty bang buck
5218	33	112547	1328758	1328534	krazyken44	7/29/05 7:42 AM	1.12262292E12	re home builds good idea	building own pc fun challenging rewarding sound boot knowing works ahhh such sound love heres good bad points building own pc briefly being said home building computer novice poeple who solve their own pc problems without help tech support pc maker hp dell etc who ask call foolish questions plugged inby way computer hardware makers their own support neededthey ask foolish questions too computer hardware comes warranty yr computer warranties lifetime yrs yrs yr normal pc hardware warranties depends hardware pc hardware moving parts electric motor hard drives cdroms fans yr warranties usually memory lifetimehmmm good reason build own upgrading home built easier dell hp gateway companies getting allowing upgrades somewhat difficult upgrade upgrading dell hp etc void warranty home builders really problem except esd fancy abbreviation static electricity discharge void hardware warranty reasons own id write book sticker says asus amd athlon hp love beep power works
5218	34	112547	1328836	1278670	mycalrp	7/29/05 8:11 AM	1.12262466E12	buy brand name compu	computer tech built repair maintain worked name brands generic machines assembled local shop off shelf parts advantage brand names ever found noticeable disadvantages usually harder work eg hps nightmare practically disassemble thing put memory chip their components usually quality those generic machines sometimes worse exception found old ibms use good compenents sometimes use proprietary pieces wait days weeks part tend less compatibility mor problems addons memory chips vga cards etc experience generic machines give problems brand names same pay dollars comparable generic assembled machine imho performance durability problem avoidance recomendation consider computers commodity need compu go down local economy compu shop special modifyadd specifications usually buy down top line time words absolute faster cpu available generation down saves eg gmhz top previous top months ago need pay such machine including lcd furthermore warranty available person face face fast service need part addon component off their shelves glad hear others techs their experience brand versus generic compus
5218	35	112547	1328854	1328836	PiviksNetwork	7/29/05 8:21 AM	1.12262526E12	buying name brand systems	company work largest third party warranty provider nation far area service hpcompaq warranties course sams club sell makes sense far getting name brand pc offer advice company experianced buy consumer desktop system generally getting parts lowest bidder receive best technical support recommend anyone purchase workstation afford dealing called big box systems far working systems workstations servers dell far easiest systems ever opened ability upgrade workstations servers good lowest priced dell workstationf example pci express slots their lowest price entry level server really boils down pay pay computer expect break couple months pay generally luck dell workstations intel mbs intel processors name brand ram custom bioss dell etc gentleman said os tied bios garbage ms controls licensing tied motherboard period oem installs whether install dell customer legally change motherboards different modelmanufacturer without violating their licence cents good luck
5218	36	112547	1328940	1278670	phoenixdragon	7/29/05 9:00 AM	1.1226276E12	going brand vs guy	techy build own systems why big league players offer something individuals being support special offers lower package price down side package deals mostly internal population unnoticable things sound andor video built main board granted most cases surfice most areas unless avid gamer audiophile big boys give soft ware bundles down side goes wrong relay their support andor repair procedures upgrading their systems check sometimes mostly memory hard drive maybe agp video slot keeping mind self voids warrenty speaking experience hp nice little system tech support great modem went off shelf replacement took work communicate main board same sound chip went south long story short things wentgo wrong included sys disk win kept loading things longer existed worked main board replacement half purchase price start point compac maker reguired special hardware slides rails their cases things fit work connectores were brand specific dell gateway alienware emachines hp others work most part comes down packageing going use usage planes change machine change list wants must haves check offer within willing spend
5218	37	112547	1329036	1278670	Ed Cuneo	7/29/05 9:37 AM	1.12262982E12	buyting dell	dell service computer never could fix bad rot before buy dellsorry recommend brand doesnt address question wanted encourage move brand ed
5218	38	112547	1329123	1328454	Beckster	7/29/05 10:08 AM	1.12263168E12	build	gateway hp computers back something found local computer shop where guy working computers he built computers office home never never never go back off shelf big box computers speed reliability pickupthephoneinstantsupport help home service really software problem hardware problem plus comparing prices comparison
5218	39	112547	1329914	1278670	TMGBoss	7/29/05 3:57 PM	1.12265262E12	comments system builder	hello many small companies build systems class parts take time research company talk sales group computer built specs without crapware support usa thomas gajdjis tmg computers inc
5218	40	112547	1330142	1278670	kinnear3	7/29/05 5:48 PM	1.12265928E12	different	consumer reports magazine surveys computer owners regular basis apple always comes most trouble free apple highest rated support own dells hp mac hp always blink dell laptop repaired numerous times under warranty warranty over discard once stops working mac given little trouble problem mac call number address hardware software problems points finger vendor techs native american english speakers too trouble free computing experience objective evidence supports apple
5218	41	112547	1330534	1302211	jahan	7/30/05 12:49 AM	1.12268454E12	too right	knowhow put things together myself small local computer shop put together system wanted profile nothing available mass producer could built price paid he could build lowend system cheaper dell hp etc him build daughter lot talk support forum got greatest benefit dealing someone locally guy phone call email away bends over backwards help taken really tricky problems him plus money spend community stays community least labour component brand name computer buy notebook considering moment wouldnt consider anything asus value money coolness
5218	42	112547	1330561	1281610	Lukewaxer	7/30/05 1:46 AM	1.12268796E12	hp	hp computers working great raved family bought four say easier use set computer set people solid dependable low maintennance need upgrade buy need hp wont void warranties three emachines set short time computers life span years dells replaced newer dells keep computer long time hp way go
5218	43	112547	1330566	1278670	ackmondual	7/30/05 2:05 AM	1.1226891E12	dells	pentium mb ram win early dads branch office shut down his consolation prize dell late hmz mb ram mb voodoo win se rd current dell ghz gb ram ati mb radeon pro winxp sp almost years ago comments dell follows st system came support office pcs nd system tech support ruled quite few problems pc id say hafl were fault half being win stable enough were american courteous go extra mile assist engaging conversation nhl hockey tho give rats ass hockey lucky pure english speaker mostly indian tech supp reps nothing against indians accent hard understand most time many seemed subpar understanding knowledge techinical expertise altho applied white folk dell continues use proprietary motherboards cases upgrade ram hd optical drives vid cards certain extent easily upgrading mobo support higher processors modding case support higher psu difficult best possible prebuilts overcharge alot components ram vs crucialcom newegg example while their low end pcs nice deal cheaper own high endgaming pcs use refurbished soso parts pcs why buy dell lazy once settled permanent job ill buy own cheap components put together own pc fun experience content having something works being ablt complain problem winxp hardware good far tho barring incident clean install too mcuh spyadware cheap always tell ppl buy dell cheap look current promos online coupons save off off self built pcs great ppl who upgrade major parts processor psu vid card often upgrade cycle moreso every years watching bad movie bad expect dell good bad ugly conclusions dell terrible quite theyre good ppl who arent too technical time build their own pclt need tech support go gamers advanced pc users certainly
5218	44	112547	1330603	1278670	Marie Boyer	7/30/05 3:13 AM	1.12269318E12	buy monarch computer	link subwebaddr computer newbie getting digital video editing run dv software without worry needed reliable strong computer highly rated motherboard hard drives large ram fast cpu good video card dvd burner spent months researching research pointed monarch offered best price quality customer service satisfaction never bought anything line before monarch computer took deep breath waited worked charm called tech support couple questions live englishspeaking person phone eager help great monarch forum post questions before buy anything go resellerscom run search customer service rating company considering nothing beats monarch terms customer service dell house problems need replacement part buy dell sometimes dell cannot tell inside computer friend who could double his ram dell longer type ram could tell him type ram his computer dell discontinues part might replace computer customer service nightmare period dell installs kinds junk onto computer computer immediately sit down start uninstalling need registry cleaner cannot program computer brand
5218	45	112547	1330680	1330603	TONI H	7/30/05 5:13 AM	1.12270038E12	great thing monarch	order motherboard cpu hsf ram powersupply small fee put together test ahead time prior shipmentthat gives option shopping around case video card floppy drive harddrive dvdrw sound card modem etc brands perhaps sale elsewhere put those pieces yourself great way start learning ground building own without worrying messing expensive motherboard cpu until ready take next step later toni
5218	46	112547	1330726	1278670	Mike S	7/30/05 5:47 AM	1.12270242E12	go local	employer employees went dell exclusively best cheapest deal bought locally way buy actually talk real person face face time failed cd drive warranty power supply buy worth being able explain local record seems beat office record fewer repairs
5218	47	112547	1330926	1278670	miketkrw	7/30/05 7:55 AM	1.1227101E12	apple apple apple	owned many brands pcs recently bought powerbook sold coming months getting imac main home machine wife wants ibook osx simply superior os makes doing everything simpler hours spend xp maintenance gone osx apple hardware built designed face far stylish everyone say macs expensive found true apple pc who really wants pc pricing pcs similar features mac totally competitive yourself favor head down apple store check mac
5218	48	112547	1331014	1278670	Winterlover	7/30/05 8:59 AM	1.12271394E12	brands	off whatever gateway nothing trouble gateway computer years were problems gateway right start suggest getting hewlettpackard brother hps pleased complaint little noisy ibm great deal longer computer business found ibm computers over years extremely reliable apple too feel apple makes really good computers easy use
5218	49	112547	1331276	1330603	bonnette_005	7/30/05 11:46 AM	1.12272396E12	help memory problem	friend tell him go wwwcrucialcom memory scanner tells exactly how many memory slots kind scanner twice though once while tells wrong details scanner doesnt work he look he knows manufacturer product line model works printers however scanner wont work time homemade computers
5218	50	112547	1331756	1278670	ddbpack	7/30/05 8:31 PM	1.12275546E12	pc	havent many probs dell id stay pc maker models trouble prone ur best bet going dell try research dell models chosen
5218	51	112547	1331923	1281691	grtgrfx	7/30/05 11:29 PM	1.12276614E12	hp tech support should bombed	yeah right call hp support tech rep delhi suggest either reformat hard drive pay year upgraded support where probably tell reformat hard drive their consumer machines stupid design choices too theyll bundle fast intel cpu big sata drive dual dvd readerburners multimedia software bother include agp slot decent video card onboard video disabled having ram slots motherboard throw original ram need memoryim return mine customconfigured dell
5218	52	112547	1332507	1330926	qprize	7/31/05 11:06 AM	1.12280796E12	apple	could agree ran pc network years quit go back school priced ton notebooks found apple competitive price feature feature outperformed most pcs master science program fine arts using virtual pc apple outperformed ghz dell pentium school were few pissed off classmates run big database wont believe filemaker pro file took minutes simple sort access filemaker took seconds bs over years spent less hours troubleshooting powerbook os unbelievable few minor problems case clips cracked bezel over dvd slot overuse where rested hand touchpad moved side thats longer problem caveat matter brand buy either extended warranty use american express pay borrow somebodys pay youre going machine least years regular warranty runs amex adds extra year warranties including extended amex paid case repaired
5218	53	112547	1332582	1330680	ikjadoon	7/31/05 11:54 AM	1.12281084E12	luv site pitfalls	topic pitfalls helped alot thanks alot ibrahim
5218	54	112547	1332925	1278670	duckdoc30	7/31/05 4:30 PM	1.1228274E12	good advise buy	went through same dilema atlas mhz need upgrade bought atlas co died considered building scratch list wanted serious questions geek friends made realize didnt brains correctly mix match install components ruled compact dell gateway hp theyre pcs upgrade friendly id worked apples didnt care either limited software hardware choices hearing good things emachines mostly offered bottom line starter machines newbies saw ad their media center model lot nice stuff cheap ati video card replaced asus extreme ax pro card added external usb floppy driveand put nd gb hard drive old pc rig scored norton performance testif havent bought yet try size great
5218	55	112547	1333127	1281691	Indianasasin	7/31/05 7:51 PM	1.12283946E12	pc world	according pcworld issue hp compag sony worst techincal support lagg war behind their competitors initial quality top pc manufacters according pcworld dell emachine gateway small time manfacturer ibuypower
5218	56	112547	1333135	1330561	Indianasasin	7/31/05 8:02 PM	1.12284012E12	imao	say easier use set computer hp how computer easier use computer mean open start menu move mouse cursor over start menu right say wanted perform complicated task open cd tray wouldnt press button cd rom reader itself hp putting buttons their cd rom readers open close understand mac os might easier use windows computer easier use becuase personal computers built using similar parts perform similar tasks personal computers built big time manufactuers dell hp compaqetc come windows xp versions windows xp start button copies windows xp start button same place how computer easier setup computer instructions provided pc manufacters always color coded anyway unless slightest clue where plug usb cable without looking detailed instrucitons buy hp
5218	57	112547	1333137	1300500	Indianasasin	7/31/05 8:04 PM	1.12284024E12	gmachines	maybe emachines should start gaming pc dells xps gmachines
5218	58	112547	1333139	1328545	Indianasasin	7/31/05 8:06 PM	1.12284036E12	reformat	remember computers need refomated every year alot dell users havent reformatted years plus
5218	59	112547	1333143	1332507	Indianasasin	7/31/05 8:13 PM	1.12284078E12	leader	personal computers hold majority market apple time market leader computers steve jobs wisdom brought down look today their ipods half their sales apple isnt computer giant bottom line apples alternative pcs
5218	60	112547	1334656	1278670	McFats	8/1/05 5:13 PM	1.12291638E12	dell machine great tech support needs improvement	before bought lot research respected comparisons reviews read dell rated categories average home use power machine dell rated best buy above brands models average home use category due price higher several due features performance dell rated best buy power machine category went wanted work editing lot photo files use several graphics publishing applications knew id limited dialup internet access near future location wanted fast machine lots caching etc happy performance reliability dell general dell inc find their tech support knowledgable caring helpful attitude communication quality however suffers due difficulty understanding accents figures speech contact failure hardware tech support whenever too impatient figure something myself theyve patiently walked through whole process during single contact strongly recommend using tollfree phone contact instead live chat online however easier quicker clarify question instruction live chat tech help too slow cumbersome frustrating their customer service dept different tech support courteous helpful experience tech support dells hp printers computers hps printer tech support crew goes their way helpful solve problem follow day solution working experience their tech support satisfatory dell could use tutelage hp further best friend director large national corporation he hps home himself his family early july he replaced laptop desktops dell based his professional personal experience companies he going dell purchase needs his company except big iron stuff he kind person swayed incentives whether simply attractive pricing contracts favors say go dell remember computer major corporation perfect
5218	61	112547	1334727	1281610	maggietoo9	8/1/05 5:45 PM	1.1229183E12	hp pavillion crudware	taken months find drivers hp pavillion could load clean copy xp home without spyware crudware adserver ware etc hp insists putting pc refused supply drivers their hardware unless installed their restore cds put their garbage back machine actually admitted sold space hard drive advertisers finally found everything clean install win xp home hp crapware recommend pc maker fills pc crud dell too
5218	62	112547	1334742	1330926	maggietoo9	8/1/05 5:56 PM	1.12291896E12	apple	wanted buy apple wanted ditch microsoft good problem tried store could mouse move fast enough didnt keep picking moving down sliding several times across screen yes set fast go fast mouse movement four inches mouse pad should way across screen
5218	63	112547	1335816	1334656	ikjadoon	8/2/05 9:55 AM	1.1229765E12	yo yo agree	sis accidently dropped laptop floor thank god damage done power cables little metal thing end bent dell sent next perfect sent old back fine tech support best seen thats comparing old generic comapny certainly buy dell wish lower their price those xps ibrahim
5218	64	112547	1474383	1278670	TommieJo	10/14/05 3:31 AM	1.12926066E12	sony pcs great	bought second pc sony made pcv working sony support outstanding six months ago bought multimedia sony pc research fantastic problems fabulous sony support superior needed
5218	65	112547	1474417	1278818	wrathofall	10/14/05 4:02 AM	1.12926252E12	happy dell	purchased dell years ago updated quite bit depends model higher end dell easy update components happy
5218	66	112547	1474591	1278670	jrrichmond	10/14/05 5:46 AM	1.12926876E12	go wrong buying dell	who listening reading dell second none second dell wont buy brand
5218	67	112547	1474592	1278670	vidyman	10/14/05 5:48 AM	1.12926888E12	box	discovering box pc longer center debate software how fast efficiently run once pcs hit gig under mark box becomes disposable read happening industry larger trend software going buy pc software going use mobile device tv set lead time majority people wont own computers lest wont upload their digital pictures walmartcom web site tools color correction red eye removal xboy friend removal happen their tvs using remote control doesnt matter buy long run software need thing point
5218	68	112547	1474631	1278670	redstar2000	10/14/05 6:07 AM	1.12927002E12	dell hurricanes	those unfortunates who directly experienced katrina rita little dell took pounding borrowing neighbors monitor power came back stunned dell booted flawlessly always astonished whenever discover real quality productbut dell earned permanent loyality wouldnt consider brand
5218	69	112547	1474637	1278895	pnutbdr	10/14/05 6:08 AM	1.12927008E12	dell support	help people office friends family their personal tech support needs dell occasions call dell tech support were great responsive short hold times curtious monarch computer love
5218	70	112547	1474647	1278670	eyupo92	10/14/05 6:10 AM	1.1292702E12	amazing pro dell	work big electronic manufacturing company produce pc year got complaints big customer our products produced noise compared dell machines fact were given price target meet half price dell ignored customer remember point got sample dell optiplex gx machine impressed ineer beauty machine manufacturers dream come true amazingly solid case cooling fan cool components effectively without noise motherboard installed cpu could run motherboard powersupply amazing rail etc etc etc etc etc long last week reviewed dell optiplex gx machine impressed unit small powersupply rail intel ghz cpu onboard graphics etc configuration easily run matx board strikes following motherboard based chipset btx form case btx case give idea mean currently btx comnpatible case pay motherboard matx form look internet everybody says use chipset motherboard system based need least powersupply far dell people extremely cautious using everything build robust systems using extremely powerful electronic basis way bring latest technology implementations masses furthermore extremely power hugry buy dell xps syste powersupply amazingly solid case etc past hp fan however ever merged compaq never advise buy computers
5218	71	112547	1474655	1279136	pnutbdr	10/14/05 6:12 AM	1.12927032E12	software problems	agree why allow installation software approve software conflicts pain absolutly need install
5218	72	112547	1474670	1300500	MissMonday	10/14/05 6:15 AM	1.1292705E12	disagree emachines	emachine years say must lemons machine returned company least times service rd mother board theyve replaced memory least twice modem twice hard drive once put powerful power supply additional cooling fan their customer service department shakey best talked repair people once before found someone who could tell case changed serial model number front didnt match actual computers serial model number back were going send correct computer until finally reached someone knew happened several friends trouble recommend themfrom personal experience got machine shop cost basically computer nothing emachine case
5218	73	112547	1474682	1474637	tglpn	10/14/05 6:19 AM	1.12927074E12	agree	neghborhood pc fixer far dell concerned regular users support site best downloading drivers such try doing hewlett packard asked fix someones pute thing ask hp time yes gag maggot thank lord windrivers suggest build own buy own os way deal crap name brand putes
5218	74	112547	1474690	1474417	javanek	10/14/05 6:21 AM	1.12927086E12	define updated	our agency purchased dells little room upgrade entrylevel machines rather nice boxes problems room additional hard drives sata controller current hard drive room additional cddvd drives pci slots proprietary components mobo power supply limited air flow ventilation good side add memory give four slots configured dell mb huge failure rate memory bad couple mobo problems over several hundred machines business meet todays needs probably fine three four years downside real upgrade path replacement ltjavgt
5218	75	112547	1474699	1278670	CTHoffman	10/14/05 6:23 AM	1.12927098E12	prefer sony	theres absolutely nothing wrong dell computers owned desktops laptops good machines owned gateway hp sony second sony desktop replacedupgraded sony vaio theres something vaio series extremely good luck sony most tvs being sony audio equipment being sony decided try sony computers havent regretted getting vaio years before bought past january really good machines complaints boils down personal preference actually
5218	76	112547	1474702	1474631	ytp4282	10/14/05 6:24 AM	1.12927104E12	medion	medion computer years never experience problem tech support superb who beat help third party software medions expensive germans doing
5218	77	112547	1474709	1278670	michigander	10/14/05 6:26 AM	1.12927116E12	pick cpu brand computer	chose computer athlon cpu brand buy highest quality wonderful case design exceptional tech support narrows down hp compaq surfacing market seems real winner unique cooling system insure long life cpu computer components high quality name cisnet started stocking along hp compaqs economical offering without sacrificing quality customers bottom line regardless brand amd athlon cpu larryk
5218	78	112547	1474738	1474637	javanek	10/14/05 6:38 AM	1.12927188E12	redell support	disagree dell support ranks rather low most circles while dealt worse doesnt whenever occasion call whatever away tier people most ridiculous things nothing reason call tend give inaccurate information time told friend everything she needed box reinstall her system problem driver cds included were optiplex dimension questioned said everything fine system hosed without drivers optiplex disk dimension told her go dell website how nic driver she wait four days send disk optiplex disk finally she asked help went dell site downloaded drivers list every driver ever model installed machine try several before successful should take look way gateway site done pull machine serial number lists drivers came installed system shipped simpler elegant note dell problem industry whole gone dogs far customer support supplier deal somewhat worse while tech support good extremely difficult hold occasions where waited hold over thirty minutes usually hang call back sales department amazing how never seem overloaded calls hold time ask transfer support right through ltjavgt
5218	79	112547	1474752	1474699	demonspeed7	10/14/05 6:44 AM	1.12927224E12	sony vaios	owned sony vaiosboth great machinesone being laptop being desktop use nowits years old really works nowwell built machine unlike gateway cost few years back diedafter years gateway monitor diedmy dvdcd drive stopped working along hard drive acting point where couldnt use internet anymoreneedless say never buy gateway ever beef sonys computers lack upgradeabilitybut seems newer sony vaios issue remediedi look forward purchasing sony vaio near future
5218	80	112547	1474766	1328534	javanek	10/14/05 6:50 AM	1.1292726E12	sounds issue	never fifteen years anyone say especially modern pnp os far brand experience anything infers technicians use manufacturer tools troubleshoot never such experience company fix brand computers suggest avoid macs excepted finally compatibility issues components research components before build machine looking works best together ask thousands people who built machines willing give advice assistance parts incompatibility rare zero problem adding commercial machine ltjavgt
5218	81	112547	1474769	1474417	djuang1	10/14/05 6:51 AM	1.12927266E12	depends	id say depends type user gamer go alienware busines user id say ibmlenovo casual user go dell modder build own computer
5218	82	112547	1474831	1278670	Daniel Brannan	10/14/05 7:20 AM	1.1292744E12	good computers	certainly go dell lots people who gone through dell night mirror problems dells especialy hard drives going bad parents dell months great hard drive went bad great hard drive months later hard drive dell almost went bad month later ran slow good year until dad finally somthing run faster fine runs slow several times week dells bought back were good dells gone down hill uncle his own business loves buy dells he says dell laptops he bought hard drives went bad cooling fans went bad herd come dell good batch dells dell bad batch dells bought ibm love people say ibm makes best computers people say macs personaly go mac todays world hpcompaq great computers emachines budget computer toshiba makes good computers sony gateway gaming go alienware computer buliding own computer going next desktop their good computer manufactures off top head
5218	83	112547	1474967	1278670	chetlynch	10/14/05 8:11 AM	1.12927746E12	dell brands highly rated	strong opinions subject majority pc manufacturers build solid machines however found brand name pcs most cases proprietary hardware means decide upgrade integrate hardware always compatible locked purchasing their products suggestion ascertain using pc contacting reputable computer store area having pc custom built find cost brand name pc allow flexibility upgrading constantly changing technology home pcs allow options increase functionality pc adding hardware without disposing casesof entire unit
5218	84	112547	1474982	1474699	skinsman61	10/14/05 8:17 AM	1.12927782E12	agree sony vaio	great running machine glitch mine car wreck bringing home totaled dodge ram loose back floorboards gig harddrive tv tuner along radeon awesome power quick slowed down gigs full already games play great weather flight sim sim dos games fair multitasks fluently great asset our home collection compaqs hewlett packards home grown buy sony vaio over jonathan roach spring hill florida
5218	85	112547	1475029	1474752	wndctyboy	10/14/05 8:27 AM	1.12927842E12	sony player years	sony seven years ago pii mb gb pcve ds years ago got pcvrx ghz gb mb ram excellent machines came great software packages buy next anytime already build own machines
5218	86	112547	1475043	1328854	chetlynch	10/14/05 8:32 AM	1.12927872E12	buying name brand systems	obviously always differing opinions must agree replies valid points believe brand name pcs solid truth pay vote however custom built pc novice he she should attempt home build computer complicated process end could costly say figure need pc find reputable computer store spend time qualified tech built experience brand name pcs too proprietary utilizing economics profitwith their hardware software
5218	87	112547	1475051	1281610	lhnorman	10/14/05 8:37 AM	1.12927902E12	hps help desk helpless	bought presario sr nx week october great price advertised features shipping fast though advertised able allocate mb main memory onboard video graphics set screen bios grayed line where reallocation take place sent email hps support asking resetting memory chips hitting reset defaults their help desk informed model limited mb memory next person dealt sent link area hps web site saying model could allocate mb main memory meanwhild computer frozen mb video graphics addition sent link behardwarecom pdf motherboard neither mentioned problem called support help number told could nothing grayed area allowing allocate mb main memory supervisor contact contacted told should call place where bought computer resolution happed hp shopping told should call hp support until gave history far told case manager contact hours called back told hours expect call next day today their products rock solid ever problem doesnt fit help desks kiddie script trouble called today recourse business bureau federal trade commission forums where let people getting buy hp product
5218	88	112547	1475104	1278670	dlauber	10/14/05 9:00 AM	1.1292804E12	key motherboard	nearly years using pcs upgrading building windows computers pretty convinced key solid reliable computer motherboard most big name manufacturers use relatively lousy motherboards use good special version manufactured features removed save few cents manufacturing instance hp boards built include jumper clear cmos wrecking friends computer forcing hp ship him youre best bet order places ibuypowercom where select components sticking asus motherboards amd processors most todays asus motherboards amd bit processors pins future proof accept amds bit dual core processors way too expensive wealthy affordable regular people year ones support dual core go subwebaddr work way amd athlon processors buying online such manufacturers best off socalled white box computer built local computer expert storefront catch lot storefront charge high prices bigname manufacturers skimp quality parts really need specify motherboard parts beware cheap imitations good luck remember friends let friend buy hp compaq
5218	89	112547	1475112	1278747	dlauber	10/14/05 9:08 AM	1.12928088E12	check motherboard thats key	those good brands akonny suggested large part use quality motherboards many allow select components go computer nearly years using pcs upgrading building windows computers pretty convinced key solid reliable computer motherboard most big name manufacturers use relatively lousy motherboards use good special version manufactured features removed save few cents manufacturing instance hp boards built include jumper clear cmos wrecking friends computer forcing hp ship him youre best bet order places ibuypowercom where select components sticking asus motherboards amd processors most todays asus motherboards amd bit processors pins future proof accept amds bit dual core processors way too expensive wealthy affordable regular people year ones support dual core go subwebaddr work way amd athlon processors buying online such manufacturers best off socalled white box computer built local computer expert storefront catch lot storefront charge high prices bigname manufacturers skimp quality parts really need specify motherboard parts beware cheap imitations key factor technical support dell hp compaq sony continue pits long waits bad advice often rude insulting tech advisors simply disaster got report though gateway turned around terms tech support bought gateway mx notebook each time called tech support question beyond usual computer user ask phone answered within seconds live technician located usa who knew his stuff pretty darn polite must admit highspeed notebook mx offers amd mobile process gb ram gb hard drive inch monitor lot heat best buy worth checking notebook good luck remember friends let friends buy hp compaq
5218	90	112547	1475375	1278670	sidsen	10/14/05 10:50 AM	1.129287E12	dell confidence	yeah dragged kicking screaming dell ranch ok their desktops few external baysi cannot configure chassis choice change their operating system under their warranty cannot subtract their components put higher spec component add components restrictive expansion possibilities hard drive keyboard started giving problems miles home who came change next business day who isbid couse set kicking screaming before ranch
5218	91	112547	1475444	1474769	ironyears	10/14/05 11:15 AM	1.1292885E12	alienware	afford alienware excellent gaming puter sysetm multiple processors outofsight graphics video sound kind money could probably buy puter each function gaming commie through ranks ibm forward almost every puter point curtial aspects doityourself buy system use add puter found emachine excellent upgrader somewhere top line plenty slots ram space areas hds emachine ended done running ghz rad video card top line soundblaster gig ram gig hd little goodies picked sale song rebates extreme gaming machine though lost through unfortunate life experience far outofthebox systems dell newer combination hp compaq compacq currently using gaming purchased fairly decent sale ghz ram video gig hd decent sound card amd compaq presario bundle straight box could play game such halo unreal tourney battlefield farily intensive games few tweaks options each game pleased particular system recommend gaming general puting home wireless network system puters hope helps bit
5218	92	112547	1475453	1278670	rich_joy	10/14/05 11:19 AM	1.12928874E12	gateway provided excellent computers	those few who stayed gateway over years owned gateway computers problem company switched gateway dell were taken over larger comapany using dell almost everyone our site unhappy switch electrical engineer days before apple built own machine meager saving worth buy computer lot newer software homebuilt built machine problem licensing software machine today important current machine ghz pentium bells whistles almost alway buy gateways top speed machine added lcd resolution machine years old already looking next replacement guess where buy next computer
5218	93	112547	1475458	1278670	elk grove doug	10/14/05 11:23 AM	1.12928898E12	dell good brand	company work uses dell equipment our nationwide network seems work great succession three companyowned dell notebooks happy august ordered dimension home took nearly weeks hours phone either hold speaking tech reps ultimately motherboard replacement thing working right terrific bought compaq hp compusa could put back box returned didnt work mail order simple good price doesnt count value time trying things corrected dell over phone frustrating part blue screen error message finally decoded faulty motherboard given dell rep spoke their tech rep training software leaves lot desired keep plugging unitl connect someone who knows something
5218	94	112547	1475468	1475112	halff	10/14/05 11:27 AM	1.12928922E12	motherboard quality	agree sad tail cheap mboards popular desktopsok look great show shopthat use reasonable graphics cardsbut glistens goldenand become open pit upgrade time comes hp good power supply wee mini mini case add usual things puter ie printer scanner camera things power dies hp power supply expensive replace could buy full size box power supply decent size power supply cost pocket brands come copy operating system stupid recovery disc thing really turn bellyup trouble unless own copy build quite few desktops agree asus boards rock solid good quality rami use good dual channel motherboard gaming bad thing never come back motherboard failure thing recently amd processor failurehad last week whole package good unfortunaty desktops pay forand retail brands overpriced build advice spend extra built buy operating system trap monitor lcd ones look great take room crt ones cheaper quality pay cheap lcds worth terms depth resulution unless doing plain office work playing games graphic work
5218	95	112547	1475514	1333127	hitbit	10/14/05 11:47 AM	1.12929042E12	worried	disappointed pc world rate advent their own dixon brand systems highly wrong thing buying hitbit
5218	96	112547	1475530	1278670	rmaltez	10/14/05 11:56 AM	1.12929096E12	brand computers	long ago difference hardware difference support obviously matter brand computer buy components same made china taiwan thailand philippines etc really difference type support such units major brand computer makers trying maintain their bottom line down prestige their name keep good support opinion consumer reserach help desk services each manufacturer most give support premium fee instead free support amount time free support varies amount charge varies using most time certain brands reliability st ibm lenovo nd compaqhp buy compaq branded units hp aldo teh same company units good hp brand last dell
5218	97	112547	1475573	1303869	hitbit	10/14/05 12:14 PM	1.12929204E12	whos who	hi those emachiners owned gateway
5218	98	112547	1475682	1328545	jeannecwood	10/14/05 12:54 PM	1.12929444E12	re why dell slow	thanks confirming growing suspicion wisdom ordering dellxp mb minimum kicking myself cost extra ordering quick put recommended beside parts hustling extra jeanne wood
5218	99	112547	1475694	1278670	scarletcom	10/14/05 12:58 PM	1.12929468E12	name brands why	nmae brands time gaints such dell gatewayand hp were small hungry companies looking their neiche marketas growing company quality reliable products important sad news those once growing companies hungry gaints interested profits production weigh side stick built systemhave system built quality componets reflect style needsdont let someone else tell need tell hold ground
5218	100	112547	1475722	1278670	rct	10/14/05 1:13 PM	1.12929558E12	computers buy	were packard bells problems nd hp never problemi hps fisrt runs good heart rid itand ghz pent iii pnet agp card photosshop movie editing install uninstall progams trying programs machine intention upgrade yetbut notebook hp
5218	101	112547	1475726	1333137	HalornHalfgrey	10/14/05 1:14 PM	1.12929564E12	gmachines	gateway allow use gmachines gateway emachines merged btw far quality goes emachines packard bell field tech hate getting gatewayemachine call high rate missdiagnosed problems wrong parts parts shipped different model oh trend supplying cds starting too expect john public run restoration utility image hisher machine image factory clients
5218	102	112547	1475733	1475530	vickie46	10/14/05 1:18 PM	1.12929588E12	alienware	brother works computers he thinks alienware best price unless build own love alienware havent problems cool looking buy kids mother hp seem run really slow
5218	103	112547	1475754	1278670	Dutchmants	10/14/05 1:28 PM	1.12929648E12	justr few quick comments	off work purchase select group vendors allowed build own systems parts due universitystate restrictions comment vendors close contact over past three years going further back reflect their current product support levels dell vendor choice work experience few problems over years dealing servers desktops workstation destops number laptops things best dell level online tech support available take oldest dell systems plug service tag number original ship date configuration download latest drivers old system standard devices ever offered factory installed options system many times offer drivers os versions never existed stopped production given system few times year experience physical failure mainly hd failures contact tech support keep mind dell special edu support team fast response parts their way time service tech offered most cases unless looking laptop seldom take offer tech take time most basic trouble shooting before ever phone place doing computer setup repair over years say contacts rare perhaps per year dell system full time use including laptops take heavy abuse field gateway limited experience negative poor quality worse support work sample system say software developer located sd gateways home state who use use gateway systems his office gave high recommendations gateway his clients who stopped using gateway systems years ago due quality support issues hp own hp laptop while ok sytem never recommend hp business wouldnt choice individual laptop uses ati graphics engine driver stable ati doesnt provide driver support moble chipsets says drivers system vendor hp yet release driver update almost years owned system microsoft updates driver come same time xp sp seemed stable way generally avoid microsoft update site video drivers once video drivers cause major issues forced boot vga mode roll back drivers old version due poor driver support hp gets low rating book system isnt current production model tend forget exist while give high marks hp printers choice bw laser printers far systems go rank low book thing noticed hp systems look close getting cut corners using older slower drives ram help keep system cost lower home build own system feel safe doing great way purchase top line components where matters personal use cut corners save money areas matter wnat go route suggest parts vendors web sites kind driver support componet hat few years old heck few old low end systems testing varius configurations components close ten years old xp server drivers
5218	104	112547	1475763	1278747	johncriley	10/14/05 1:31 PM	1.12929666E12	hello	question brand buy dell dell dell dell dell dell dell dell dell dell dell dell dell dell dell dell dell dell dell dell dell dell dell dell dell dell dell dell dell dell dell dell dell dell dell dell dell dell dell dell dell dell dell dell dell dell dell dell dell dell dell dell dell dell dell dell dell dell dell dell dell dell dell dell dell dell dell dell dell dell dell dell dell dell dell dell dell dell dell dell dell dell dell dell dell dell dell dell dell dell dell dell dell dell dell dell dell dell dell dell dell dell dell dell dell dell dell dell dell dell dell dell dell dell dell dell dell dell dell dell dell dell dell dell dell dell dell dell dell dell dell dell dell dell dell dell dell dell dell dell dell dell dell
5218	105	112547	1475814	1278670	ackmondual	10/14/05 1:52 PM	1.12929792E12	unbiased takes dell	brands mentioned their fair share positive negative reviews imo dell worse off were years ago theyre pretty good rank tops profits theyre good were old handmedown dell dimension pentium mhz model mb ram forgot model name back late dimension mhz ram dimension ghz ram present unbaisedly offer hand obvservations home user perspective several years ago dells customers business users how happy corporate america dells inspirons optiplex lower end dimension systems overall appears good home users today before guessing dell worse years ago overall theyre pcs jobs done definately fair share complainers way off others legit dells pcs getting ways batter cases dimensions media card readers value etc worse others reasons show why dell worse years ago why dell worst bc afiak arent proprietary parts mobo psu iirc case made go together atx standard form factors psu mobo either buy directly dell rd party sellers offer fitting parts pairs compatibility reasons dell offers high endgaming systems cheaper build own high end system tech support going down crapper god awful far cry their peak during late early agents who provide answers read right off qa manual without impression guys really understand how solve problem every once while yes indian accented person who comprehend left message machine worthless bc could understand nothing cheaper quality parts ts covers hardware winxp problem office burner drive software likely help provide manuals anymore pc good blue scrn death painful print those pages standard ts days upgrade yr rumor dell gonna away online coupons true sticker price dell pcs outrageously high imo dell nice less sticker price avoid their crt monitors must buy monitor their ultrasharp line lcds quite good troubleshoot nearly minor moderate problems mind researching online how install own apps findnig how restore usb speeds says usb how rid spyware need call ts serious problems lemon everything works fine year worry rest upgrading wont upgrade mobo psu case comfy dong minor upgrades yourself add ram upgrade dvd burner yourself add hd etc
5218	106	112547	1475948	1278670	hatedell	10/14/05 2:40 PM	1.1293008E12	dell good brand	purchased dell dimension years ago computer weeks power supply went called dell customer support way located somewhere country hold minutes finally got somebody phone person kept telling nonsense procedures example she tell turn pc check light turn back informed representative certify computer technician needed dell send power supply mean people computer knowledgeable hour being phone she tells seems something wrong power supply she told were going send certify technician replace components inside case weeks tech showed his thing left days same problem called dell go through same crap being phone hours told representative take their useless computer back refund money instead opted gateway already own last year felt dells commercials where were offering dimension pc under dollars things short same problems nothing electrical outlets happen house asked dell worst pc stick nothing gateway great prices great american customer support
5218	107	112547	1475967	1474637	hatedell	10/14/05 2:47 PM	1.12930122E12	NIL	must somebody dell every time call take less minutes those noncomputer experts phone
5218	108	112547	1476106	1279116	RockinTechie	10/14/05 3:54 PM	1.12930524E12	presario laptop	recently got presario birthday motherboard died made guess could little dated importantly wondering where good place go buy hard drive how take put live canada cheapest found ebay us approx canadian although relatively cheap futureshop wants charge approximately dollars where install running xp important runs pretty decent mb memory gb ram please let asap need laptop highschooluniversity
5218	109	112547	1476176	1278670	BAMBAMRCK1	10/14/05 4:26 PM	1.12930716E12	pretty simple really	none shelf computer brands really thier own stuffall asemble together go hp compaq dell makes difference however gamer work field where doing graphically intesive apps go highend stuff yet put together yourself otherwise main brand check specs
5218	110	112547	1476192	1334727	GinaPA	10/14/05 4:32 PM	1.12930752E12	hp pavillion crudware	gtgtgti recommend pc maker fills pc crud dell toogtgtgtgtgt computer makers who install adwarespyware crap anymore id seems read every day maker going down road really upsets secretive programs tell theyre thereyou usually learn users forums often cause many computer problems leave computer open sleazy invader infect hijack itgina
5218	111	112547	1476275	1475763	k2mc	10/14/05 4:57 PM	1.12930902E12	why dell	response answer question why why why why why why why why why why why why why why why why why why why why why why why why why why why why why why why why why why why why why why why why why why why why why why why why etc
5218	112	112547	1476300	1278670	Baddad53	10/14/05 5:10 PM	1.1293098E12	monarch computers	three dells anymore wanted amd intel available delli wanted north american support indiai wanted able upgrade unit future dellmonarch great prices good customer support too bought myself sonboth year onsite warrantythe cost hundred each building myself plus three year warranty cost check researched online computer vendors months prior picking monarch
5218	113	112547	1476415	1474637	cben417	10/14/05 6:26 PM	1.12931436E12	dell service sucks	dell while done fine problem monitor before upgraded lcd deal dell customer service once hours talked people who willingly admitted were phillipines india bangladesh chinaim huge fan outsourcing people didnt say how react manners ever reason bought dell monitor inches lcd got free shouting manager usa call center minutes citing each place person called who hung once deal someone competent theyre fine anyone usa person might talking wall who speaks broken english
5218	114	112547	1476547	1328545	hatedell	10/14/05 7:57 PM	1.12931982E12	memory upgrade	actually memory upgrade nothing dell displeasure working added second mb module ran slow snail xp darn dell computer itself
5218	115	112547	1476742	1278670	ucsdirect	10/14/05 10:38 PM	1.12932948E12	white boxes far	white box system built local independant computer store most popular brand far white boxes outsell top tierone manufacturers combined reason usually custombuilt using individual components system builder knows their business assembled short list highquality performancematched components total outperform fastest brand systems personally benchtested systems against top systems noted cnet others beaten performance closelymatched configurations average service support warrantee big factors consider components good system having individual warrantees least years lifetime able offer minimum warrantees years our standard systems years our top line systems before limiting yourself branded box please consider local system builder looking locally maybe box gotten hardearned dollar
5218	116	112547	1476750	1474738	brucewayne	10/14/05 10:50 PM	1.1293302E12	response dell support	called dell support numerous times help always courteous knowledgeable tech line didnt wait minutes before got tech line were times called back follow problem were couple times said theyll call back didnt say time real problem dell techs bruce
5218	117	112547	1476755	1278670	Da Dog 4 2	10/14/05 10:56 PM	1.12933056E12	screw dell ever existing	got grand go alienware best systems ever wait windows vista come windows vista ultimate edition media center pocket pc pcs
5218	118	112547	1476832	1300500	Donald Curry	10/15/05 12:46 AM	1.12933716E12	agree bid time bglover	hello emachine man everybody cut down made fun welli wish could hands back itbut say shuttle pretty good pci sit desktopwhen use running conabout drive most computers days drivebut mine older works great emachinei bought tryed break down keeps goingand paid stupidhigh dollar gatewayabscompacqdellman give emachine day aticard built moboand tell shuttle ati cost guessit really goodbut emachine could beleave got iti got emachinefor backup pcbecause hooked lol said gets store shuttlewas put storageand use emachine thx time awizard
5218	119	112547	1476995	1476750	MegsL	10/15/05 4:04 AM	1.12934904E12	ageeing bruce great support dell	obviously every service line good individual operators great support dell always found courteous constructive yearold dimension desktop recently hard drive trashed through pure ignorance didnt couldnt combine norton ghost norton goback sata stripe array disk dell support could kinder hard drive tower pickup delivery exactly promised word reproach cannot thank enough thing dell must pcs individual identity number hand phone need access machines past history otherwise nothing seems quite reasonable hi great forum meg
5218	120	112547	1477125	1474670	Poeticme	10/15/05 6:30 AM	1.1293578E12	gateway vs emachines	ok read most postings machines say got gateway husband low end machine years bought our computers time motherboards replaced cdrw entire cpu gutted redone use computer business disappointed gateway admit their customer service great phone their storesthey stunk machinewell husbands going energizer bunny unreal bitter taste gateway products emachine gateway same kind worries thinking purchasing machine guess ill opinion take care good luck
5218	121	112547	1477562	1476755	ikjadoon	10/15/05 11:44 AM	1.12937664E12	got grand	overdrive
5218	122	112547	1477759	1475453	hatedell	10/15/05 1:37 PM	1.12938342E12	go gateway	cannot agree richjoy gateway top line gateways oldest gateway computer years old rocking go gateway
5218	123	112547	1477764	1475458	hatedell	10/15/05 1:42 PM	1.12938372E12	dell customer support	give dells customer support worst representatives reason speak sort foreign accent american namesgo figure number thing hate dell keep repeating self over over dell needs bring their customer support where sell their productsto good old usa
5218	124	112547	1477996	1328534	abobble2	10/15/05 5:33 PM	1.12939758E12	home built	where dig componets tech how obviously tech wrong term apply person
5218	125	112547	1478040	1476755	ackmondual	10/15/05 5:56 PM	1.12939896E12	nt nt got extra yourself luxury car	NIL
5218	126	112547	1478089	1278670	lakegaspaul	10/15/05 6:45 PM	1.1294019E12	dell aok	hate dell bad rap over past several years purchased dell laptops dell pcs except small problem promptly fixed count zero problems dell most extensive web site permitting customize their purchase software hardware easily site confidence dell product market buy bottom line brand
5218	127	112547	1478090	1475722	jwscogin	10/15/05 6:46 PM	1.12940196E12	computers buy	gonna hp compaq
5218	128	112547	1478155	1278670	jwscogin	10/15/05 7:47 PM	1.12940562E12	brand good question	several questions understand knnowledge computers prior giving advice buy brand primary use andor purpse purchasing computer followed prioritizing remaining uses computer manufacturers names who produce cpus motherboards memory hard drives video cards sound cards peripherals general understand lingo terminalogy computers refering such things ata sata dimm agp atx matx etc their function uses how little wish spend purchase computer finding information able give advice type internal computer hardware cpu mobo memory etc need purchase fulfill needs meet priorities placed earlier without disappointment computer purchase almost computer builders dell gway hp etc use least minimum hardware capability reduce cost mid low end priced computers yet meet customer satisfaction computer builders aleinware cyberpower overdrive voodoo etc build good high performance computers great results fit needs level purpose kia rio chevrolet monte carlo ford mustang corvette viper whats medicine operating system difference how computer performs windoze mac os linux how many people fill latter fill their environment comes linux works reliable compared windows youll reboot computer ten twelve times windows before youll need linux linux distributions say easy use easy install thats true however small learning curve being able run favorite windows based sofware xandros desktop os version business edition offers easy install easy use writing reply using xandros open circulation edition oce free internet providersnetwork support says support linux xandros linux different personality viruses affect windoze computers xandros linux wwwxandroscom net certifications working computers networks last years managing over computers workstations servers time seen bought different brands computers workstations servers built our most reliable computers servers running over years without hardware failures knock wood take someones advice purchased several computers their life good luck their picks andor purchases ask someone who purchases computers alot tell overall computers perform last longer between failures failures computers failure eventually sooner others good luck yuo cna raed tihs wyh sepnd mcuh tmie tyrnig ptu lteters oerdr albe udnresantd waht bineg siad ecah wrod
5218	129	112547	1478403	1278670	hydroman	10/16/05 12:59 AM	1.12942434E12	emachines great company	owned refurbished emachine coloradeo months terrific product few problems computer dummie needed help were great including guiding thru reformatting drive long phone wait actually speaking american could understand instead bozo offshore whenever possible return avoid products whose help lines offshore whose people working hour completely unintelligible hooray emachines
5218	130	112547	1478693	1278670	colinmschmitt	10/16/05 7:03 AM	1.12944618E12	worse dell averatec	impression asker talking desktop pcs laptops need testify terrible time averatec laptop stopped working power go months bought under warranty order repaired ship back calif cost computer over weeks customer service line directly affiliated company located within us result calls received answering service allows averatec effectively ignore customers computer disfuctional suffering their mistake averatec devil
5218	131	112547	1478755	1278670	Rob10	10/16/05 8:18 AM	1.12945068E12	maybe dell getting message	eyeing dells last couple months trying decide hassel building own trying dell current computer year old dell dimension zero hardware problems looking dimension looks replaced xps dell said basically same box dual core pentiums standard optional upgrade bigger change seems warranty xps system instead dimension sytem give premium sounding warranty shorter wait times salesguy made sound us based techs talking sales guy sound dell getting message poor customer satisfaction support trying take care customers who spend little xps line decide purchase dell thing ill wait until costco carries xps give month return policy crummy days dell gives course customize costcodell computers usually put together fairly nice packages free shipping
5218	132	112547	1478960	1334727	uglo	10/16/05 10:45 AM	1.1294595E12	crudware right	too purchased hp pavillion using month wiped hard drive clean installed windows xp professional course makes warranty invalid windows xp home complete crap computer works too ram upgradable bad parts seem working fine dvd writer etc believe hp excells producing printers pcs purchase plan made future specifications totally upgradable type expensive less expensive long run upgradability
5218	133	112547	1478971	1328534	uglo	10/16/05 10:51 AM	1.12945986E12	say yes home built pcs	anybody who build pc need call tech answers hope he she capable knowing exactly needs done troubleshoot problems son he reads finds answers himself he never call tech internet too lot answers rather home built pc upgrade
5218	134	112547	1479168	1278670	miwi98	10/16/05 12:53 PM	1.12946718E12	their cheap	dell figured sell bundled computer systems help those who clue how their pentium celeron computer packages really inexpensive most novices difference between pentuim celeron chip pentium numbered chip looking how good looks cheap admit dell impoved quality their bundled computer system need improve customer service area companies should take clue dell compaq customer
5218	135	112547	1479239	1278818	Howlleo	10/16/05 1:29 PM	1.12946934E12	ibuypower	bought ibuypower sucked case came scratched chip off silver facing light died within week replaced dorky smaller light didnt light case properly speakers died mouse died within warrenty period replacements replaced neighbors handmedowns theyve lasted til exactly happned beginning actually ended deleting software reinstalling windows repartitioning drives within days turning thing time means lost lot extra software bundled point glad computer being able design own pc next time ill try vendor dell bit too stodgy though
5218	136	112547	1479397	1478403	jwscogin	10/16/05 3:17 PM	1.12947582E12	emachines great company	personally own home use performed flawlessly were dire need updated system due wife going college kids relying internet perform homework good deallow cost mail rebates weve years emachines their homework hardware software compatibiity computer builders throw computers parts together call computer check software compatibility emachines builds good computer good customer support definately buy emachines share problems dell fix how build computer gateway gotten hp favorite brand systemax someone give axe work thats why brand loyal few emachines purchased work worked great performing how users give their old emachines brand dell gateway
5218	137	112547	1480258	1328534	altini_s1	10/17/05 7:16 AM	1.12953336E12	idea	kind case power supply use need gaming machine
5218	138	112547	1480511	1474699	dlsima	10/17/05 10:03 AM	1.12954338E12	sony vaio	bought vaio years ago love too owned gateway hp toshiba emachine compaq apple apple iigs mac besides macintosh way expensive sony far superior machine everything works thier web site always current hardwaresoftware updates drivers far less software issues sony machine besides apple convert home movies dvds create small videos advertisment businesses
5218	139	112547	1481079	1328534	carolina1	10/17/05 2:50 PM	1.1295606E12	home builts great	little work alot result pick components match machine style use old software spend months wondering okay delete file file didnt come preinstalled trash built last time motherboards upgrade processors outlasted prefab hppackard bellepsonibmdell systems past best tell try contact vendor automatically
5218	140	112547	1481188	1474591	hatedell	10/17/05 4:12 PM	1.12956552E12	go wrong dell	bet probably work relative working dell dells desktop computers next garbage bought dimension computer year period were defective bad power supplies bad motherboard their technical support next having somewhere distant jungles india those people tenchical skills everything tell reading right off monitor good product go gateway
5218	141	112547	1481214	1474647	hatedell	10/17/05 4:28 PM	1.12956648E12	dells spokesman	seems lot dell tried getting job dell instead working company work badmouthing keep talking might end working dells technical support indonesia
5218	142	112547	1483266	1479239	zeppelin777	10/18/05 4:37 PM	1.12965342E12	sony	recently purchased sony bit gig ram happy runs smoothly really enjoy media center gateways dells customs prefer sony
5218	143	112547	1486317	1331276	Marie Boyer	10/20/05 3:09 AM	1.12977774E12	thanks tip	he already replaced memory entirely rather add memory he started scratch replaced whole set wish tip summer thanks
5218	144	112547	1486318	1478403	Marie Boyer	10/20/05 3:12 AM	1.12977792E12	agree	bought sisterinlaw she needed surfing photo processing bought cheap best buy million rebates came back bought her year questions asked warrant best buy worked charm
5218	145	112547	1487311	1479168	lyrical56	10/20/05 5:41 PM	1.12983006E12	dell	normal home user tried buy dell online phone due their extensive advertising bargain pricing put off experience cancelled order were interested sale helping wanted needed went hp site got refurbished hp pavillion problem none date third hp wont anything else until absolutely behind timesi love hp feel dependable their keyboards upgrade ram overall great machine disks own liking con decide upgrade probably look around based knowledge doing need check suggested such monarch sony emachines certainly give preference experience hps perhaps others experiences say highly recommend hps
5218	146	112547	1487605	1487311	kaman3	10/20/05 9:57 PM	1.12984542E12	hp good	too good luck hp using right functional happy interaction their customer support someone wants surf word process etc go hp pavillion however youre wanting serious applications graphicintensive software gaming id go gone someone else research lots forum reading decided go monarch great experience offer great selection parts good prices responded questions timely fashion hp relegated tv duty mce
5218	147	112547	1489872	1330561	dawnmw	10/21/05 9:50 PM	1.1299314E12	love hp	use hp years satisfied never buy anything else friends family members dell stand using their computers comparison really suck far support never use hp easy upgrade never compatability issues updated drivers sent whenever available advise really computer nomatter brand learn how take care properly yourself fine tune needs car should little problems most people crappy working computers end buying every year thing never bothered learn how take care
5218	148	112547	1490300	1477125	Rob10	10/22/05 7:08 AM	1.12996488E12	pc world survey agrees	checked pc world survey computer reliability worth confirms experience maybe results weighted earlier reliable machines before started cutting many corners dell bashing rated quite hardware reliability support story folks say dell spends advertising hence their good rating
5218	149	112547	1491687	1475763	blondiejane	10/23/05 5:49 AM	1.13004654E12	agree	devoted dell user struggling different brands computers decided try dell dimension love bought mine december problems recently upgraded memory processor ghtz video card sound card easy able upgrades myself unofficial support person community dealt numerous problems brands computers dealt almost every tech support different brands computers best experience dell worst experience compaq sisterinlaw owned gateway nothing problems tech support recommendation go dell
5218	150	112547	1496982	1333143	rccoffee	10/26/05 3:03 AM	1.13029578E12	love download updates day buy apple	bought apple running ox panther feb sony running win xphome jul every once while security update apple almost always major updates apples software garage band itune quick time apple works everyday really quality machine sony glitches day sony service poor every computer user specialist fix yourself every day every day download updates antimalware programs scan every day last ms security update took hours fortunately fixes caused computers work boot didnt happen maybe mss update didnt installmaybe failed update id check os panther great need widgets spotlight program didnt upgrade wont upgrade vista either swiss cheese os ms
5218	151	112547	1519806	1331923	Jeff Dodson	11/5/05 9:56 PM	1.13122776E12	stupid set wlan ipaq	loved posting re hp support grtgrfx direct resource tells cookbookie way how set wireless ipaq got activesync setup friggin dumbfounded wep keys etc where numbers tnx grtgrfx whomever led good direction jeff
5218	152	112547	1540333	1475104	ronaldpmaki	11/15/05 8:32 PM	1.13208672E12	bit confusion	purchased emachine amd athlon processor ghz gb hd gb ram dualchannel processor last spring kid upstairs sony playstation bit processor clearly didnt how answer his question how sony could produce faster game computer industry could produce fast computer he bought his playstation three years ago bought emachine desktop last compare same
5218	153	112547	1540795	1540333	ackmondual	11/16/05 5:09 AM	1.13211774E12	NIL	sony specifically game industrys always ahead pc industry initially likes ps xbox usually powerful whaterevers available pc short while though pc hardware becomes available surpass keep mind vid game consoles pcs different machines designed different uses while play hightier games pc needs properly config course comparisons betw apples oranges
5218	154	112547	1543386	1475051	dwmc_cruzin	11/17/05 8:06 AM	1.13221476E12	same problem same response	learn anything find looket desktop advanced settings reports mb post says mb bios says mb directx diagnostics reports mb memory being somewhere assume thats video something else ati specs say mb shared memory ati pcix cheapie buy best buy support shared onboard
5218	155	112547	1545457	1543386	lhnorman	11/18/05 8:03 AM	1.13230098E12	sr	today november yesterday hp promised replace sr nx customized sr upgrades essentially same thing sr nx exception having nvidia meg se graphics card rest meg main memory refuse admit their sr nx falsley advertised
5218	156	112547	1587617	1325191	mjb1103	12/7/05 6:24 PM	1.13397984E12	hp sucks beyond compare	yes hp sucks worst customer service refuse honor their warrenty computers clearly under warrenty their solution computer troubles issues wipe start fresh refuse look system diagnosis basically off phone oh thing bother asking their managers person spoke including their qa dept manager crappy company who doesnt care consumers who bought their product long short story month old computer wont boot loop safe mode mode wont boot happened lovely day october decided start computer could use crazy hitting button certainly stress machine anyway starts boot whamo freezes huh thats weird most people hit ctrlaltdelete reboot yah beginning end stuck loop wont boot mode called hp tech support weve spoken people say wipe thats warrenty covers nobody wants look fix without losing data thats way question trouble us taking their authorized service centers best buy paying nose look themselves hp interest customer service holding their warrenty happily offered us option buy warrenty upgrade promply asked why gods name pay anymore money people honor warrenty heres sonmething guys love too qa guy darren said he didnt own hp he built his own computer tell their own employees buy their crap why should side note emachines ranked higher customer support consumers reports hp emachines believe
5218	157	112547	1607989	1278747	mdemski	12/16/05 1:42 PM	1.13474052E12	hardware vendor	bought last computer velocity micro tough customer love their quality way wires wrapped love their support few quirky things happened push pc max video editinggaming etc helped tremendously
5218	158	112547	1688846	1474982	jeffrey a. getty	1/21/06 1:56 PM	1.13785176E12	sony rb	recently purchased sony vaio computer found reliable hoping sony soon offers amd dual processor option thx jag
5218	159	112547	1689357	1278670	TeCkSkAt3R	1/21/06 7:16 PM	1.13787096E12	good quality brands	good quality brands alienware acer toshiba gateway apple
5218	160	112547	1691880	1475967	mamajenn	1/23/06 4:09 AM	1.13798934E12	agree	purchased gateway computer use our lake home four years ago purchased dell computer unhappy gateways tech support foreigners ole ears lot difficulty understanding felt lack knowledge purchased dell dimension through research arrows pointed dell their superior tech help true until last year last year dimension replaced dell few months later noticed technicians dell hold time spiraling downward quite disappointed power surge few weeks back lack color red monitor thinking replacing system torn whether purchase gateway dell emachine keep reading phone tech support emachine while experts attention processor best pentium amd athlon gamer regular user small business
5218	161	112547	1691901	1328507	mamajenn	1/23/06 4:19 AM	1.13798994E12	business dell vs private dell	beginning wonder business dell purchaser receives tech support private dell purchaser thought time called dell tech support must typed wrong digit got through business tech support line shocked how fast call answered answered obviously usa english speaking technician help transferred someone living across waters lousy english
5218	162	112547	1691930	1305124	mamajenn	1/23/06 4:45 AM	1.1379915E12	angryfirelord anyone else forum	how build own system where buy parts needed best prices parts need mamajen
5218	163	112547	1692240	1691901	ackmondual	1/23/06 8:32 AM	1.13800512E12	wouldnt surprised	majority dells business corporations small businesses between their focus tech support calls similar how focuses windows office being those cash cows maybe ppl could phoney business names without registering tech support
5218	164	112547	1692460	1691880	ackmondual	1/23/06 10:23 AM	1.13801178E12	takes	bought dell pcs thats back ts great decent best hard understand accents min wait times seemingly unknowledgeable agents skimpy coverage warranties software blame were buy pc research id go dell could find boatloads online coupons least expect expect dell otherwise id probably buy ibuypower such type vendor emachines hear hit miss tech supp never bought their pcs either along gateway wanna try site vendormanufacturer reviews cnet epinions amazon
5218	165	112547	1692514	1328534	pkiddmui	1/23/06 10:43 AM	1.13801298E12	mo power home pc builder	amen brothers sisters who built their own machine feeling choosing right pieces go rig awesome build over summer mainly ot play lastet games eg battlefiled call duty working great intel corsair xms ram seagate sata hd nvidia gt aspire xplorer atx psu advice anyone who thinking building research research research research fun btwim techie own trouble shooting ask right questions google find answer help deskcustomer support joke actually helpless
5218	166	112547	1692546	1691930	ackmondual	1/23/06 10:56 AM	1.13801376E12	tkeas	note browsed through several online guides assembling own pc gone through many postsdiscussions never actually built own pc before else wbetter experience posts somethigg contrary means shoot instead how yeah many online guides available text illustrations videos altho usually generc different motherboards processors where put system ram etc vary unless find popular brand youll tweak instructions somewhat own equipment else techie friend ask him help general heatsinkcooling comes attached itll easier else installing part difficult applying thermal grease putting needs finese precision parts stuff cards plugged maybe connected power supply harddrives optical drives put proper bays connected either sata ide ribbon cables hooked power supply stick system ram load install winxp install drivers install user software youre good go buy parts places newegg newegg popular pc parts ppl who assemble their own pcs means certainly isnt place others moment name perhaps sites zipzoomfly tigerdirect outpost pcmall sell pc parts best prices ppl seem newegg however bought peripherals cheaper elsewhere eg logitech mx optical mouse zipzoomfly free shipping newegg sold plus nj sales tax newegg warehouse state plus shipping handling made whole end newegg competitive prices doubtless youll able find deals elsewhere certain components otherwise own comparison shopping youre lazier post onto pc forums ask direct recommendations pc components buy where parts buy case motherboard heatsink comes mobos cooling fans processor system ram hardrive video card unless integrated motherboard monitor unless old use network interface card modem sound card unless integrated motherboard speakers cddvd rom cddvd burner floppy disk drive keyboard mouse hope helps
5218	167	112547	1692566	1691930	pkiddmui	1/23/06 10:59 AM	1.13801394E12	components websites	neweggcom zipzoomflycom ecostcom buycom name few preferred newegg over opinion check cnet product review recommends sites purchase each different items happy building
5218	168	112547	1692794	1475733	deirdrew	1/23/06 12:16 PM	1.13801856E12	experience	price towers time clients least week vendors trust alienware priced never seen bangforyourbuck deals coupons existing customer offers email could configure gaming dell same spec level hundreds less gateway deals either btw business gamer systems safe buy alienwares longest extended warranties especially buy their pricey laptops own alienware laptop cost over years ago overheats started nd monthand everything lcd case itself replaced during year multiple service calls got maybe months use use total year while under warranty heating issues fast pricey beautiful lemon told little use never moved traveled stress crack lcds frame too weight larger inch laptop lcds check forums concerning alienware their towers lots lemons due stupid builder errors
5218	169	112547	1985464	1325191	kipoutdoors	6/6/06 10:48 AM	1.14959088E12	ugh dude	learn how build own computer really difficult ever buy computer retail store crapola
5218	170	112547	1985954	1689357	Cluchetti	6/6/06 3:33 PM	1.14960798E12	re	hp ibm compaq acer alienware voodoo velocity micro suggest building computer
5218	171	112547	2013613	1587617	jaiswalkanpur	6/19/06 3:43 PM	1.15073178E12	tales customer service woe	recently forced contact hps technical support hard drive laptop died computer less year old fell under warranty thought simple thing resolve followed perhaps most excruciating tech service phone calls history spoke technician least hour half while he sprinkled misinformation telling hp could transfer data defective drive put hold probably half dozen times flat didnt understand issue id lost extensive amount data uninformed service technician headache need he finally transferred technician who told original technicians information incorrect scheduled appointment service center sent box everything story doesnt end made mistake calling try information regarding warranty wanted warranty read actual text greeted technician named charles who played same game give random information related customers question put customer hold repeat random information put customer hold really got feeling he wasnt uncooperative he didnt understand english finally asked charles supervisor dance try prevent speaking his supervisor reason why wish speak him he wont available long time ill put hold hell pick etc sat hold minutes before charles picked asked information he could give told him he could give information reach his supervisor he put back hold charles waiting hang supervisor picked bit suspicious told he couldnt provide warranty information call number call explained him hoops jump through speak him he offered weak apology call ended mean every time go their stupid site little jd powers award claim hp best customer service care planet expecting something stellar calls few days unless somehow managed find lumps coal sea diamonds hps total care service group maybe problem award issued too bad computer broke down needless say happy friends happy happy right hp product nor extended service plan purchased cover expert technicians who wasted least hours life conclusion hps total care customer service fantasticif ever use
5218	172	112547	2020395	1278670	caasix	6/21/06 6:54 PM	1.15091604E12	hpp	hp computer years happy tasks recently purchased media center hp got say fast bought leads good hp brand always good never take computer service cleaning dust old computer common years operates hp knows their doing
5218	173	112547	2028379	1985954	Big Steve	6/25/06 2:23 PM	1.15124538E12	re brand computer best	rate monarch velocity micro big steve
5218	174	112547	2028817	1475112	mamajenn	6/25/06 6:46 PM	1.15126116E12	dlauber please read	read post ref desktop computers market computer read everything possible confused terms thought ask help gateway fx processor pentium ghz mhz fsb mb cache non ht em processor amd clueless terms mean chipset intel chipsety ddr support memory gb pc dual channel ddr mhz scram correct assuming higher pc faster mem mhz mean nvidia nvidia computer info gateway site white box gateway athlon processor rather pentium thanks advance help
5218	175	112547	2028857	1305124	mamajenn	6/25/06 7:07 PM	1.15126242E12	how build own system	okay talk building own system where gather info need purchase right parts how how put parts once purchased anyone send list exact items needed guidline how install parts thanks
5218	176	112547	2029174	1479397	PKsteven	6/26/06 12:35 AM	1.1512821E12	emachines	while too owned emachines performed flawlessly stated disagree tech support motherboard problem dropped during shipping their company called tech support wondering why ports werent working were laughing having good ol time said days report past furiously spouted off how said paper insisted extended while got mad seeing year warranty standard emachines listed pc box manualit web site internet timecalled corporate office blew fuse say though past warranty explained how told days refurbished whole pc except power supply hard drive mb fans dvd drives hard drive mine upgrade took prior shipping unfortuanately years later power supply showed signs slowing down problems froze frying cpu perhaps motherboard seen happen many brands miss ran top going soon buy asus mb specifically yet build own anyway yes run great known issues power supplies hope fixed hit miss situation brands suppose paul
5218	177	112547	2188806	1474690	HalornHalfgrey	9/9/06 6:08 AM	1.15778208E12	dell upgradable	systems business bought were most likely slimline sff boxes great cubicles little room stacking under conference table gx gx plenty room full sized video cards additional hard drives come additional rails extra drive bays major downside three years youve squeezed upgrades wont able slap motherboard keep system becoming obsolete
5218	178	112547	2189443	2020395	khaostech	9/9/06 12:51 PM	1.15780626E12	hp	agree second pavilion problems upgraded present hp added everything could ever gamer course run ms train simulator run next pc hp improving their products their techsupport excellent anyone says otherwise obviously recently reading thru whole desktop forum come conclusion theres lot ignorance regarding products advice wasting time
5218	179	112547	2215096	1587617	jh525	9/19/06 6:05 PM	1.1586891E12	hp extended contract repair sucks	sent dv repair three times same problem display contract hp says return three days never seem care terms contract happen own several hp products never buy
5218	180	112547	2220181	1587617	hary57	9/21/06 3:49 PM	1.15885374E12	buy laptops hpno hard drives available	bought dv four months ago hard dive crashed sunday obligitory hours long wait said send hard drive found today hard drives back order available untiloctobermaybe extended warranty hp said clause says unreasonable amount time apply asked him considered unreasonable amount timecrickets chirping told him buy hard drive hard drive nope none available once good companynow sucks
5218	181	112547	2267422	1587617	Omnipotant_1	10/15/06 3:50 PM	1.1609274E12	hp blew hp didnt care	big problem hoping guys idea hp laptop june got hp due swell discount pricing bought same time server month ago few pixels went bad display called hp arranged send box could send day repair person talked guarrenteed laptop back within five days sent box wrong address times dude sent laptop randomm house guy canceld order right eneded talking managers etfc box whne got relunctantly sent laptop last month lost laptop said were going send fine removed hd beofre sending sent wrong address sat outside while got ruined before fedex picked back yesterday finallly got laptop back display nice gouge center display call tell abou let wont able send go wiithout laptop month aggreed send display could install made certain past sent addres guess sent wrong yesterday laptop lit fire sparks started flying hp replaced display scotched taped wires around pivot bolt holds display opened closed display ripped sheilding off called hp talked custoemer service manager who told laptop china being serviced wheile sitting front mentioned fire laptop thier poor repair job immediatly got transferred executive director consumer affairs talked her while she told way fixing send back told her already sent display she told isnt possible talked while told her due course requirments satilite design project unable go wo laptop month she said lying borrow computer told her go ahead send box hours later check order right guess she sent box wrong address call her she cancels order hangs phone email her today saying she recreated order time being laptops fire problem fixed temporatily however stil gouge displayshe told probably got those laptops constantly things go wrong asked her why she said bad luck asked speak her manager she said she didnt read over contract clearly stipulates day turnaround where mention thing unless except ship parts told executive officer probably going keep sending broken laptops wrong address lost left lot story btw questions appreciate advicei kinda lost btw buying display samnsung plasma isnt option though told managers probably way getting fixed advised could help media while trying solve issue interested something
5218	182	112547	2314841	1325191	tapsbin	11/6/06 1:01 PM	1.16281806E12	hp really really sucks	hp sucks doubt their customer service never ever buy their product dell atleast returning phone calls replacing products were defective dell thought let try hp customer service every time goes somewhere india answer anything power hp hours talked their case managers talking legal terms oh warranty gurantee sir hp never ever buy mistake hope hp understand else go business soon
5218	183	112547	2344924	1475112	mrstuffie	12/11/06 9:38 PM	1.16587308E12	mx	seem find anywhere says mx laptop radeon video card built change mb installed memory isnt enough play high end stuff fear
5218	184	112547	2357361	1278670	william551	12/26/06 10:27 PM	1.16717202E12	problem dell	everybody right core ds bit pcs nobody bit pc upgrade those falcon those alien dudes motherboards pcs
5218	185	112547	2357904	1474769	boldins	12/27/06 3:04 PM	1.16723184E12	ibm	depends djuang reply happy dell wrathofall id say depends type user gamer go alienware busines user id say ibmlenovo casual user go dell modder build own computer quote above shows ibm recommendation business users helpdesk operator tell ibm worst track record our types machines distribution dell hp ibm our locations worldwide calls receive approximately ibms top technicians sent ibm less satisfactory best
5218	186	112547	2518608	2357361	daglow	6/19/07 6:44 PM	1.18227864E12	desktops dell brands highly rated	todays computers against tremendous odds fail internet viruses spyware trick emails worms infected pictures videos phones mf printers music tv downloads uploads smaller aesthetics etcare contributors computers fail good builder how protect computer overload keep operable dell hp gateway compaq emachine person building rig air flow cache bus compatibility hard drive failure rates os bit bit video cards etci laptop works never repair above companies business money little guyswhat paying their expertise using right parts enough good system builder almost how computer going regardless customer tells say going surf net read write emails usually kids dog jealous wife means speed good antivirus printer indestructible case locking fingerprint entry good warranty lcd flash drive possibly camera type dvd burner how ram cpu speed size hard drive internet apps os should discussed should discussion dos donts lose os cd defrag often etca good system builder offer warranty paid big companies give years warranty usually included price big companies build computers weeks break acceptable their bottom line big companies millions dollars build thousands computers past few years big companies feeling pressure little guy dropped decided move bracketing market offering high end computers low end computers everything between unfortunately low end stuff kind sucks especially support computer users low cost computers work years puts lot pressure little system builder conclusion dell brands highly rated wrong question person highly rated right question every town computer genius every family least person who professes ultimate computer knowledge ones who business over years knowledge person look
5218	187	112547	2518842	1474690	fbbbb	6/20/07 4:53 AM	1.18231518E12	iif buy nonupgradable pcs	nonupgradable blame yourselves manufacturer
5218	188	112547	2519180	2267422	jaiswalkanpur	6/20/07 11:01 AM	1.18233726E12	NIL	saga continues eventually got hard drive repaired through hp dazzling twomonth ordeal lo behold almost exactly year later hard drive dies call their hp case manager escalation line call runaround outsourced customer service reps india leaving few messages got jason line jason lovely argumentative demeanor droll monotone voice his commentary riddled frequent sighs scoffing he wasnt interested helping he interested how got their senior case manager number lovely jason asked why calling replied hard drive died recently wanted give hp call could resolved without having deal their bumbling technical support group recently he exclaimed almost year ago replied yes consider fairly recent honestly should consumers expect replace major system components failure every single year how their company business he scoffed audibly seriously beginning hp doesnt give folks training whatsoever certainly concept service making point sound annoyed possible while filling case report jasons entire purpose seemed off line way he could he told needed call their tech support line could walk through issue told him politely knew issue exact same issue id before he told needed call laptop division hp service asked number he didnt he told could either call india allow enter case report he really sounded he didnt he could enter report id wait maybe days before id hear back asked hed please started entering case report thats he got really annoyed listened jason mumble under his breath next minutes while he typed away his computer trust he absolutely nothing nice say left call feeling precisely nothing going done problem figures really certain why hp feels customer service stellar theyre sadly mistaken incidentally call ext talk jason
5218	189	112547	2538133	1587617	jainvh	7/12/07 2:14 PM	1.18424964E12	totally agree hp sucks big time	three laptops hp overheating problem took weeks returned same bought same problem hp total care delaying replacing everytime call put hold minutes give hang phone how reach higher authorities totally pissed off how report consumer protection agency never ever buy hp product looks totally suck top totally useless total care total care total careless
5218	190	112547	2569546	2518608	magusyk	8/24/07 8:37 AM	1.18794462E12	hp	dv us months own bought gb ram slots happy spilled half beer left side keyboard let drain upside down next day booted right shocked keyboard messed keys were stuck usb keyboard opened removed connection kb mb ordered part hp parts didnt try use warranty fault anyway amazed keyboard designed hold liquid allow rest casethen dots showing over screen burnt pixels sent many said returned unrepaired end weeks cases later really loved laptop their support horribly idiotic ever buy hp product justice due their poor care customers suggest buying ext warranty store best buy compusa etc wish ida brand laptop today polkadotted powerhouse uhg boycott hp
5218	191	112547	2597477	2013613	International Klein Blue	10/2/07 1:50 PM	1.191333E12	hp worst customer service experience ever	hey folks nice yet sad read many others getting screwed hp saga seven weeks old end sight wont go nitty gritty people large bricks text key points include sending month old pavilion media center repair due excessive fan noise hp repairing wrong fan sending back sending wait weeks before learning video card fan malfunctioned specific video card back order asked replace old video card video card actually stock told their video cards were back order ha weeks go call every day day tell computer ready receive sep sep computer course told fixed returned excessive complaints arrange speak case manager play phone tag awhile send numerous emails listing details case finally contact case manager told deal strictly american complaints canadian seven weeks computer clue receive computer details story worse trying brief consumers power stop companies hp screwing us spread word let people how treat their customers lets their customer service improves sales revenues drop zero
5218	192	112547	2614698	2267422	Forest1966	10/25/07 9:03 AM	1.19330298E12	hp support joke	bought hp laptop happy until wireless card failed returned laptop under warranty outsourced hp repair facility facility lost laptop how hell loose laptop repair facility round round their useless offshore support finally got us based customer care division put customer care quotes joke comes hp patrick fletcher senior customer support manager he return phone calls he ignores requests information situation he finally call back weeks ago say lost machine sending upgraded model paying rental use over months far once patrick fletcher refuses return calls never answers his phone matter fact senior customer support answers their phones sent sets certified letters hp senior execs nothing done date unbelievable lack customer service major corporation ran business expect closed within week spent rental laptop spent phone calls hp spent certified letter senior management hp getting screwed hp priceless
5218	193	112547	2634311	2519180	atulkd	11/20/07 3:37 PM	1.19557302E12	NIL	laptop under warranty dc jack broken called tech support guys said issue covered under warranty laptop repaired sent laptop received email repair team particular issue actually covered cost usd repaired mentioned why tech support team asked send laptop place covered vain got laptop back week received invoice usd hp shipping charges laptop didnt repair tell pay amount hang upside down put jail
5218	194	112547	2634346	2519180	International Klein Blue	11/20/07 3:56 PM	1.19557416E12	hp doesnt care our complaints tech forum	how lawsuit seriously nothing says listen disgruntled customers class action way strongly recommend crap component computer breaks ask hp send replacement part replace send computer hp results frustration emotional trauma dangerously high blood pressure enduser replacement less stressful faster people comfortable replacing computer components lack expertise remember hp hires developmentally challenged lemurs work repair depots users should problem replacing parts themselves video card debacle lasted almost months replaced video card waiting hard drive
5218	195	112547	2642634	1325191	klfricke	11/30/07 10:03 PM	1.19646018E12	hp sucks	everything hp sucks never use hp product gave away everything read accurate call sales department boise idaho call tech transferred amoung multiple people india absolutely nothing except next place transfer call
5218	196	112547	2643919	2614698	Deviant21	12/2/07 1:23 PM	1.19660178E12	same story	happens part bought hp pavillion dv customized laptop september despite many people advising against buying hp products guess screwed day got apparently motherboard defected phoned hps famed techincal support sincerly apologized claimed happens every million billion laptops unfortunately laptop received told repair accepted happly until friend pointed he told demand replacement cancel repair service cuz stupid trying repair laptop nightmare begins phoned hp technical support told intentions technical support told thats their problem didnt power anything transfered order status department transfer took mins order department told techical departments problem transfered mins hold technical department told wasnt their problem transfer mins order department say same until blasted agent told her put her superior line explained situation he assured receive laptop weeks phone calls toll free number got laptop happy endingno way read part
5218	197	112547	2643926	2538133	Deviant21	12/2/07 1:51 PM	1.19660346E12	same story	happens please read episode before reading post replacment laptop got worked fine months before hard drive suddenly crashed got shock phoned lame technical support told happened ran few tests told hard drive permanently damaged made service order took credit card number collaterali supposed hard drive windows recovery cd expected delivery date gave service ticket number waitedhowever never received shipment notification phone technical support told assured reach due date didnti got paranoid phoned technical support asked why didnt reach agent clue transfered order repair status department idea why didnt reach either teh agent updated information told reach before st couldnt trust agent emailed agent through hp website problem guess agent told problem warranty status ans send receipt clear problemwhich got service ticket number delivery date november suprisingly didnt arrive called techincal support hundredth time asked reason delay turned lack hardrivesriduculous he assured reach next time date promised phone wellthe email agent told same tale check status today found order together cancelled agent told reason didnt pick phone calledwhat reason pissed completely told him wanted case escalated case manager level hopefully escalated manager supposed phone tommorowi doubt thati wasted total hrs dollars whole process congrats hp ur best never use computer anything accept games day day computer works reason bought cursed brand becuase best graphic card same money design temptingit recently found hp products suffer serious hardware defects
5218	198	112547	2643968	2614698	Deviant21	12/2/07 2:37 PM	1.19660622E12	orignal sin	ever buy hp laptop dunno how their printer desktops perform recently found hp serious hardware problems their laptops especially their hard drives their technical support consist bunch self confused fools who take pleasure making dance circles fool people their false reputation exterior designs their laptopthey actually look good go dell ibm least their laptops crash moment
5218	199	112547	2663863	1331923	backfixer1	12/27/07 6:48 PM	1.19878128E12	too own hp sucks story	same thing purchased laptop years later stopped working geek squad said best send hp called hp told buy extended warrantee paid given tech support told takes month go effect makes sense sent box sent weeks later got back without hard drive called told someone call back finally got someone brain who ordered hard drive call twice sent attempt got hard drive installed os went install os dvd partially open called hp furious demanded drive while phone forced open drive reinstalled os battery refused hold charge lock batter compartment fell off told hp battery bad buy charge either returned defective got last week charge today spent hours calling hp demanding supervisor asking immediate help saga continues never buy hp laptop should ashamed themselves
5218	200	112547	2681723	2569546	caliegrl	1/17/08 2:17 PM	1.20057942E12	hp worst customer service	ok finished going through printer purchased april last year got home return scanner work ok six months later fax work called customer service country calling understand word said go through whole thing tell need replace printer said ok asked credit card number hold until machine back problem magic question getting oh getting unit repaired works fine ok problem told purchased said move speak manager got nasty guy named george who case manager telling read warenty three times says told him fine man give how he spoke told him wanted speak someone else above him he told buck stops called someone else go right back him called customer releations yup thats he called back told him agian wanted he said told nice day hung company seem care how their employees treat customers really need check things never buy hp product tell everyone happened please anyone who reads remember buy product works good great doesnt getting someone elses reject repaired sent off look dell gateway great customer service
5218	201	112547	2684553	1331923	rokkyofnh	1/20/08 10:22 PM	1.20086772E12	hp sucks irresponsible corporate citizen	need held accountable going continuay produce crap products support once purchasedthen need call fed americans allow ourselves treated offal corporate tyrannists tyrannypower over others marked cruelty absence justice ready accept tyranny our form government injustice injustice numb become allow pervade our society before our republic need stop corporate oligarchy before too late demand respected irresponsible corporations listen need stop crap buy hp products
5218	202	112547	2709742	2663863	CestSimone	2/20/08 2:35 PM	1.2035181E12	active lawsuits against hp wrt customer care	hi found blog googling hp customer service sucks share own hp rant others whove experienced horror problem started hired kafka write their customer service training manual bought dv off hps website december along expansion base end january crashing soon day stall during reboot final diagnosis problem heat sink motherboard took longer stall let rest cool down while before trying start computer locked bios page definitely wasnt vista problem lot calls hp customer dontcare able case manager who told entitled replacement time almost weeks phone calls each lasting between minutes fed hp declined replacement asked full refund hp case manager said fully entitled he gave case his fax phone number extension his work hours he asked fax over receipts refund started he made point telling faxes office tend lost should write his name large letters fax called back next day confirm hed received fax call during working hours hed given provided person who answered phone case told anthony unavailable he back weeks ago called his office times trying hold him each time received same response hell call later asked case manager avail point submitting claim mastercard recover money spent computer never buy hp product
5218	203	112547	2714116	1331923	Laptop nerd	2/24/08 9:39 PM	1.20388914E12	hp worst computer makers earth	right hp backlight broke reason wait half hours phone put line dubai pissed sent computer repairs months later finally comes back heres catch broke disk drive
5218	204	112547	2714117	1985954	Laptop nerd	2/24/08 9:50 PM	1.2038898E12	wtf	hps worst computers ever made worst quality therefore compaq suck too hp bought compaq use good brand computers sucks hp shoved cheap products compaqs ass toshiba awesome dell xps vista ultimate certified data screen dual core thin three best computer makers certified data dell fujitsu toshiba acer somewhat
5218	205	112547	2753392	1331923	NorrisGoff	4/17/08 7:27 AM	1.20841722E12	hp sucks	please visit wwwhpsucksus others unpleasant hp experiences invited send story post site norrisgoffverizonnet
5218	206	112547	2784472	1474831	phat_17	5/31/08 7:46 PM	1.21226316E12	hate dell love itfor gaming	mean alienware manufactured dell tech support dell years
5218	207	112547	2796214	1476415	3Sherry	6/20/08 11:38 PM	1.21400508E12	regret dell purchase	months ago purchased dell xps pc vista software big mistake beginning network connection problems countless phone calls many many hours foreign dell techs thick accents seemed answer put hold constantly promised call backs never came dell techs answer computer issues dump operating system start over months dump operating system twice finally got american dell tech who dealt kind network connection problem before he said he similar complaints customers trend micro security software vista software he turned off trend micro firewall solved connection issueno dumping operating system time yippee happiness soon dashed tried use computer got nothing blue screen calls dell techs constantly repeating myself jumping through same repeated hoops over over foreign tech told call geek squad fix computerwhat told her way spending red cent fix computer year warranty paid next day american tech read history dell techs sent dell home tech charge home home dell tech come our house twice far time replace mother board second time replace hard drive computer makes wonder huh computer running smoothly isnt ofteni really enjoy real downer dell each time called dell techs help times tried sell something became concerned computer performance vista software wanted return asked patient work solve issues lead along until days return policy sneaky rotten thing keep having deal faulty computer poor dell techs seek legal help consumer rip off dell
5218	208	112547	2796215	1278670	3Sherry	6/20/08 11:39 PM	1.21400514E12	good computer tip	toshiba
5218	209	112547	2809995	1325191	hpsux	7/11/08 5:05 PM	1.2157959E12	hp go hell	sent laptop dv wm hp repair broken wireless card got back wireless card fixed found tons scratches laptop case crack monitor screen tech support broke monitor called customer service promised fix broken monitor sent laptop back hp got back nothing fixed packing slip said lcd replaced liar called customer service promised really fix problem time sent laptop back hp got back nothing fixed nothing being replaced crack screen scratches case could probably live scratches case definitely crack monitor screen totally unacceptable before sent laptop hp likely condition got back monitor broken case damaged became piece garbage sent back hp times time got back unrepaired deeply regretted bought hps product never ever buy product shxty company got case manager rd time he said nothing he could unless send back computer last time sent back week later got call saying part need fix computer stockand wait till happened fedex people delivered package wrong address someone took computer away pissed contacted fedex ask file claimbut fedex people told hp should file hp sender ok best part call hp day got call unknown hp agent saying worry anythinghp open case soon everything need hand mail computer person said he case manager called he himself follow back call case manager call waited whole day nothing happened called case manager asked him he talked fedex case manager acted he heard he said he didnt why someone called said his hand word he saying hp done hp company hired fedexthey customer fedex customer hp fed hp produced defective product second broke monitor instead fixing rd sent back unrepair item th push away responsibility eventually called hp guest relation deptand trying file complaint against case manager woman whom telling she knows story whatever mighty case manager told whatever hp could rude tone voice hp worst customer service worst repair shop most useless case manager rudest guest relation people work long live hp happily waiting stock crashing someone said before too never never buy hp product long live
5218	210	112547	2809997	1281691	hpsux	7/11/08 5:10 PM	1.2157962E12	go hell hp	sent laptop dv wm hp repair broken wireless card got back wireless card fixed found tons scratches laptop case crack monitor screen tech support broke monitor called customer service promised fix broken monitor sent laptop back hp got back nothing fixed packing slip said lcd replaced liar called customer service promised really fix problem time sent laptop back hp got back nothing fixed nothing being replaced crack screen scratches case could probably live scratches case definitely crack monitor screen totally unacceptable before sent laptop hp likely condition got back monitor broken case damaged became piece garbage sent back hp times time got back unrepaired deeply regretted bought hps product never ever buy product shxty company got case manager rd time he said nothing he could unless send back computer last time sent back week later got call saying part need fix computer stockand wait till happened fedex people delivered package wrong address someone took computer away pissed contacted fedex ask file claimbut fedex people told hp should file hp sender ok best part call hp day got call unknown hp agent saying worry anythinghp open case soon everything need hand mail computer person said he case manager called he himself follow back call case manager call waited whole day nothing happened called case manager asked him he talked fedex case manager acted he heard he said he didnt why someone called said his hand word he saying hp done hp company hired fedexthey customer fedex customer hp fed hp produced defective product second broke monitor instead fixing rd sent back unrepair item th push away responsibility eventually called hp guest relation deptand trying file complaint against case manager woman whom telling she knows story whatever mighty case manager told whatever hp could rude tone voice hp worst customer service worst repair shop most useless case manager rudest guest relation people work long live hp happily waiting stock crashing someone said before too never never buy hp product long live
5218	211	112547	2810002	1278670	hpsux	7/11/08 5:37 PM	1.21579782E12	hp go hell	sent laptop dv wm hp repair broken wireless card got back wireless card fixed found tons scratches laptop case crack monitor screen tech support broke monitor called customer service promised fix broken monitor sent laptop back hp got back nothing fixed packing slip said lcd replaced liar called customer service promised really fix problem time sent laptop back hp got back nothing fixed nothing being replaced crack screen scratches case could probably live scratches case definitely crack monitor screen totally unacceptable before sent laptop hp likely condition got back monitor broken case damaged became piece garbage sent back hp times time got back unrepaired deeply regretted bought hps product never ever buy product shxty company got case manager rd time he said nothing he could unless send back computer last time sent back week later got call saying part need fix computer stockand wait till happened fedex people delivered package wrong address someone took computer away pissed contacted fedex ask file claimbut fedex people told hp should file hp sender ok best part call hp day got call unknown hp agent saying worry anythinghp open case soon everything need hand mail computer person said he case manager called he himself follow back call case manager call waited whole day nothing happened called case manager asked him he talked fedex case manager acted he heard he said he didnt why someone called said his hand word he saying hp done hp company hired fedexthey customer fedex customer hp fed hp produced defective product second broke monitor instead fixing rd sent back unrepair item th push away responsibility eventually called hp guest relation deptand trying file complaint against case manager woman whom telling she knows story whatever mighty case manager told whatever hp could rude tone voice hp worst customer service worst repair shop most useless case manager rudest guest relation people work long live hp happily waiting stock crashing someone said before too never never buy hp product long live
5218	212	112547	2810005	1278747	hpsux	7/11/08 5:50 PM	1.2157986E12	hp sucks ass	sent laptop dv wm hp repair broken wireless card got back wireless card fixed found tons scratches laptop case crack monitor screen tech support broke monitor called customer service promised fix broken monitor sent laptop back hp got back nothing fixed packing slip said lcd replaced liar called customer service promised really fix problem time sent laptop back hp got back nothing fixed nothing being replaced crack screen scratches case could probably live scratches case definitely crack monitor screen totally unacceptable before sent laptop hp likely condition got back monitor broken case damaged became piece garbage sent back hp times time got back unrepaired deeply regretted bought hps product never ever buy product shxty company got case manager rd time he said nothing he could unless send back computer last time sent back week later got call saying part need fix computer stockand wait till happened fedex people delivered package wrong address someone took computer away pissed contacted fedex ask file claimbut fedex people told hp should file hp sender ok best part call hp day got call unknown hp agent saying worry anythinghp open case soon everything need hand mail computer person said he case manager called he himself follow back call case manager call waited whole day nothing happened called case manager asked him he talked fedex case manager acted he heard he said he didnt why someone called said his hand word he saying hp done hp company hired fedexthey customer fedex customer hp fed hp produced defective product second broke monitor instead fixing rd sent back unrepair item th push away responsibility eventually called hp guest relation deptand trying file complaint against case manager woman whom telling she knows story whatever mighty case manager told whatever hp could rude tone voice hp worst customer service worst repair shop most useless case manager rudest guest relation people work long live hp happily waiting stock crashing someone said before too never never buy hp product long live
5218	213	112547	2811855	2809997	JOJOHAZE	7/14/08 8:56 PM	1.21606896E12	hp simply worst technical support	warning buy hp product tech support provide malaysia horrendous talk offshoring gone bad their tech support reps restore hp pavilion back original settings without explaining he doing ramifications action wiped entire hard drive damaged ahrd drive call different occasions replacement hard drive each call lasting least hour minutes due wait time yourself favor learn experiences never buy hp ken
5218	214	112547	2826463	1281691	petalilac	8/4/08 10:34 AM	1.21784604E12	hp desktop problemetic hp tech support joke	monthold hp pavillion sporadic booting problems until completely died yesterday wouldnt go beyond blue screen death spent hours phone their offshore tech support went through technicians were apparently undertrained knew wipe whole system didnt work wanted send back motherboard replaced tech support people rude addition being incompetent rest were incompetent expect product live longer
5218	215	112547	2826908	1474769	repete_smile	8/5/08 2:43 AM	1.21790418E12	dell buy aw	dell bought alienware promptly ruined gaming pc go velocity micro falcon nw build own
5218	216	112547	2834588	2809997	DALEJUNIOR_88	8/15/08 12:44 PM	1.21880424E12	hp sucks	relate story purchased hp laptop nov christmas present toi replace year old compaq real issue going today slow mind job sisters use te computer taken box run time dec fine kind got college months down road working fine before went class day came back hour later boom keyboard control buttons except power button wouldnt work having type reports must spent day restoring laptop hoping software glitch wrong shell external keyboard already external mouse handy couldnt afford laptop rental hold over time university late april took local dealer shipped away repair hear anything over month call update hp using old tricks parts shortage lost etc patient wait weeks claim over accepted period time claim refund money say good bought toshiba few days later call local dealer telling he recieved old laptop he called find going told him fixed refund check comming tell him ship back demand refund late july yet check hp losing hope ever means down drain laptop show never ever purchase hp product rest life suggest readers same
5218	217	112547	2834738	1475514	Patrick OBryan	8/15/08 6:30 PM	1.218825E12	microsoft based industry coming	bought hp machines preloaded vista downgraded machine xp somewhat stable operational yes pay copy xp could genuine microsoft product vista based machine shuts itself off periodically basically dead water computer technician time become expected machines work properly without degree mit incredibly angry computer industry right microsoft sold bill goods hp definitely bed never buy hp product trying support machines impossible guess could pay rid old software upgrade vista pay thousands dollars software their bottom line sell service contracts machines work great way saw microsofts counterads showing blind test vista people loving looked open mind look open checkbook too try operate system absent person standing telling goes giant corporations continue own greedy selfserving policies adopted rip off their customers trust lie refuse take responsibility their actions launch ad campaigns propaganda try us believe were simply mistaken without using great number unacceptable words possible express anger post scam
5218	218	112547	2836382	2709742	Happy Dell User	8/17/08 9:26 PM	1.21900836E12	goodbye hp thanks nothing	where start bought zd went shop due power plug problems graphics started going lines due overheating problem called said warrantysorry bought dell zd became paperweight got lawsuit papers zd class action due overheating problem fixed settlement became zd graphics problem line thing called hp hung nice dell going strong goodbye hp never buy anything remotely associated nor ever anything good say shoddy products good riddance looking top page hp banner says sleek smart simple forgot scam
5218	219	112547	2836820	2834588	sashank_1234	8/18/08 11:25 AM	1.2190587E12	hp sucks core	way file case against hp consumer forum really waiting people come options file casei gonna take highest level possible really pathetic service hpthe worst support ever seen till please help
5218	220	112547	2855945	2834738	hpstinks007	9/11/08 6:14 PM	1.22115684E12	agree hp stinks	went through same thing help why created site hp stinks com wwwhpstinkscom
5218	221	112547	2867239	2597477	Mikey14674	9/25/08 8:06 PM	1.22237316E12	hate hp	hp beyond terrible cannot worst customer service called problem having their personal media drive bought hp computer bought already prepared brainless customer service spoke same dummies past say hp service worst past hard drive less three months old causing computer crash explain problem having three different reps phone three hours ask speak supervisor his response problem tell should pay back files hard drive should reformat drive he kept saying understand concern he listening he told save files drive computer asked him virus drive why move computer internal drive he response going end having pay pocket pay fix whatever problem having under warranty hp sucks big time hope company fails credit crisis die hp die
5218	222	112547	2867241	2834738	3Sherry	9/25/08 8:58 PM	1.22237628E12	windows vista software	vista came dell xps pain constant going problems weeks using computer dump everything start over three times according dell techs ugh dell finally sent tech home helped bit cannot chat yahoo group nor working spell check feel us who were suckered buying vista due refund check customer rip off
5218	223	112547	2869201	2867239	daglow	9/28/08 12:35 PM	1.2226053E12	line	read lot post hp being bad company most part lot information left data recoveryvery few companies guarantee data hard drive fails back youre luck however warrantee computer should fix mechanical problems defective parts software problems caused defective parts itunes downloaded software viral infected pc lastly wait days computer kinda repaired buy local going break cell phone car warranty afford laptopsdesktops global warranty choice whether bring someone come prefer bringing ask salesperson question leave computer sitting top car drive away smashes replaced free days less buying computer over internet convenient mail person handling expensive cargo great respect usps drop few times before gets number yes called tech supporta waiting hold understand person saying hours understand sent wrong part weed criminal element bad decent people
5218	224	112547	2869414	1475468	In-Correct	9/28/08 9:08 PM	1.22263608E12	hp	reason why dell selling many computers many basic many people able willing pay lot computers recommend hpor compaq lots machines built memory card readers back those were ones could find those features viewsonic monitor device available surprised compaq lasted long someday keep case internal memory card readers replace motherboard processor eventually whenever might needed careful dell sell lot basic machines sell cash registers sell printers stick their name recommend dell printers recommend samsung dells features performance upgradability others dell numerous usb connetions mine originally back front dells back added pci cards
5218	225	112547	2869447	2314841	hpstinks007	9/28/08 10:26 PM	1.22264076E12	agree	really suck worse experience gettin questions answered hey check website complain www dot hpstinks dot com blog person trying gather complains
5218	226	112547	2869448	2810005	hpstinks007	9/28/08 10:27 PM	1.22264082E12	agreed	hey agree similar experinece check website wwwhpstinkscom person trying gather complains def list complains over copy paste something
5218	227	112547	2886851	1476300	manmen80	10/20/08 11:51 AM	1.22450346E12	indian tech support	easy say buy american north american support todays economy id how long lasts ability able afford modern gadgets such cheap affordable price should taken granted instead consider yourself lucky enjoy while lasts people rd world countries who build systems afford systems seen people who call countries india cuss techs phone americans serious attitude problems wherein whole world talk us our language unfortunately understand english people talking us accent american english enjoy progress money superpower status financial mightbut remember everything goes comes downits law nature experienceindian techs extremely knowledgeable helpfulexcept american communication barrier
5218	228	112547	2916802	2855945	consumerblues	11/28/08 12:26 PM	1.22787516E12	misleading rebate offers	hp clearly intention honoring their rebate offer worst customer service twice submitted everything needed rebate keep sending forms asking same info over called twice today disconnected each time asked supervisor never buy hp why ag hasnt looked their misleading rebate offers
5218	229	112547	3010367	2714116	mdagli78	3/24/09 2:05 PM	1.2379035E12	hp sucks	agree hp components tech support case managers suck bunch cheaters met hp products friendly advise keep away people bite anytime
5218	230	112547	3041821	2714116	benhartman	5/11/09 8:25 AM	1.2420303E12	hp hdx really suck	hdx premium march hard drive crashed april backlight went hp service wants machine weeks loaner terrible
5218	231	112547	3310733	1325191	malik ayad	5/25/10 6:25 PM	1.2748119E12	totally agree	same freaking thing happend days ago hp worst customer service ever seen guys support freakin indians
5218	232	112547	3334505	1325191	soundshot	7/6/10 10:20 AM	1.2784116E12	buy hewlett packard computer	short version long story computer arrived problems day hp rep wipe hard drives dissapeared tried charge restoration disks until made stink grudgingly sent themthen dissapeared next rep got helped install told going cross country weeks time test said problematic could return past return periodboy wish access their phone recordings lo behold hard drive failed completely few days return asked return refund told never said could second hard drive started developing problems causing unit freeze every minutes hour tried fighting amex chargeback fought tooth nail along way amex somehow siding hp based few untruths theirs tisk tisk got amex letter stating could return money back according hp told amex could return label free fix tried calling hp got rep india he made every excuse call over hours he nothing newand got nowhere theives plain simple thinking possible court action reading yourself favor buy hp hp remember bigger harder fall help howard
