1627	0	312647	2884309	NR	Lee Koo (ADMIN)	10/17/08 11:17 AM	1.22424222E12	poll how old current main computer	how old current main computer brandspankingnew less year old year years years years years years old embarrassed say
1627	1	312647	2884460	2884309	Steven Haninger	10/17/08 2:51 PM	1.22425506E12	year old home built	runs fine dowhich isnt anything worthwhile
1627	2	312647	2884634	2884309	Silvertop	10/17/08 8:42 PM	1.22427612E12	old	last decided build system amd man many years intel duo coming switched intel core duo dual running ghz gigs pc dual channel ram motherboard gigabyte ds kept old gig sata seagate antec case lg dvd drive power supply kept nvida gforce video card difference between old overclocked amd running ghz intel hate admit wrong years amd being best intel rules oh learn doing
1627	3	312647	2884618	2884309	nerv2010	10/17/08 8:43 PM	1.22427618E12	spanking	hp xw workstation going work older custom yr old box
1627	4	312647	2884637	2884309	bskoros	10/17/08 8:49 PM	1.22427654E12	poll how old current main computer	six months ago gig mobo went south second time decided time system went core quad gig gig ram vista business duel nvida gts sli duel acer widescreen lcds originally went creative audigy card recently switched razor instead love bill
1627	5	312647	2884638	2884309	beinghappysucks	10/17/08 8:49 PM	1.22427654E12	laptop	college kid laptop got boarding school years ago really afford replace runs ubuntu fine switch gamed
1627	6	312647	2884639	2884309	kaptainzero	10/17/08 8:52 PM	1.22427672E12	turned	bought mine off ubidcom refurbished got bigger power supply graphics card whole thing cost play todays games max settings perfectly except crysis thats fair everything zero problems installed vista ultimate slowdown completely reformat every months keep running fast
1627	7	312647	2884641	2884309	websquad	10/17/08 9:01 PM	1.22427726E12	fairly three older	main machine win xppro sp built feb indel core quad evga nfource mb gb pc ram nvidia geforce video mb sli capable pair wd raptor xs raid sysprograms pair wd caviar gb raid data cooler master case ps floppy modem dvd year old hp laptop adequate require little old compaq driven linuxubuntu mac powerpc osx web development xppro machine use others check web compatibility play machine overclocked socket take several cpu upgrades waiting windows spring bit computing pleased configurations
1627	8	312647	2884642	2884309	electricseashell	10/17/08 9:03 PM	1.22427738E12	years ibm thinkpad	ibm thinkpad enough ram keys worn runs traveled around us years coffee shop visits bought least year old refurbished hard drive replaced while under warranty really hasnt given too trouble until tried run windows xp
1627	9	312647	2884644	2884309	Ron Geiken	10/17/08 9:08 PM	1.22427768E12	newest computer months old	computer built custom house york quad processor gig ram internal hard drives windows vista installed microsoft office small business added tons things too use pinnacle studio really pleasure video editing quad processor gig ram works smooth silk nero installed too use firefox thunderbird adobe reader irfanview picasa hypersnap windows capture program tunes quick time three browser including ie never use use zone alarm avg free programs security several support type programs installed best computer ever owned spared expense wanted memeo back program western digital free agent drive nice array vista gadget programs sitting right side wide screen samsung monitor
1627	10	312647	2884661	2884309	Tropj	10/17/08 9:16 PM	1.22427816E12	age computer	primary computer less year old dell xps secondary computer less year old dell latitude laptop purchased wanted desktop laptop windows xp while available avoid changing vista
1627	11	312647	2884666	2884309	LEO O FORTUGALEZA	10/17/08 9:31 PM	1.22427906E12	six year old desk tops	ashamed say three six year old desktops windows xp os tweaking similarly aged pcs owned friends neighbors learned matter optimizing ones pc he gets best sixyear old pcs come life proper tweaks software hardware made friend mine windows vista he knew little found himself complaining his pc slow usual tweaking found he could achieve speeds his pc he take good care software tried worked includes atf cleaner ccleaner ncleaner tune utilities
1627	12	312647	2884675	2884309	jannij	10/17/08 9:54 PM	1.22428044E12	yo home built	ol gal keeps chugging along though become time build custom modded antec sx case antec watt power supply abit nf nvidia nf ultra motherboard amd athlonxp fsb cpu scythe kantana heatsinkfan gbs corsair xms pc cas ram ati radeon xt mb agp board nvidia sound storm board nvidia nic high point rocket raid wd gb hdds raid wd gb hdd removable hdd frame asus dvde dvdrom liteon lh lite scribe dvdrrw drive super multi drive combo floppymemory card drive wintvpvr pci tv tunerrecorder fm radio card running win se windows xppro freespire linux triboot setup
1627	13	312647	2884690	2884309	santuccie	10/17/08 9:58 PM	1.22428068E12	months old	computer use most time using right gateway laptop got july off regular price core duo gb pc ddr running vista home premium hated vista until got unit fact came service pack helped refuse touch bit vista machines power computers own came vista home premium home basic running xp pro couldnt stand performance instability downloading sp fixed nothing doesnt seem good unless comes preinstalled years old year old
1627	14	312647	2884678	2884309	foxygrandma	10/17/08 10:01 PM	1.22428086E12	how old current main computer	years old dell dimension always problems ever
1627	15	312647	2884694	2884639	mwooge	10/17/08 10:30 PM	1.2242826E12	reformat	reformat every months how hd should anything youd lose stuff didnt reload properly
1627	16	312647	2884726	2884309	CODAMAN12	10/17/08 10:41 PM	1.22428326E12	home	built amd athlon mb pc gb total hd vision tek radeon oc xge mb graphics card sony dvd rrw win xp years old wife compaq series celeron mb ram win xp gb hard drive wcdrw mb ati graphics card once past min boot runs never problem years old
1627	17	312647	2884715	2884309	anime4christ	10/17/08 10:44 PM	1.22428344E12	years sony vaio vgcra	need upgrade pc running fine enough money upgrade moment replaced dvdrom repaired dvd burner replaced hard drive started failing upgraded ram gb max running fine fully compatibe windows xp vista linux distro threw mac os leopard small hacker experiment lasted few weeks
1627	18	312647	2884728	2884309	jlrowe	10/17/08 10:55 PM	1.2242841E12	months old	months ago decided could assemble under month comparing prices specs looking free shipping parts newegg computergeekscom heres came watt power supply biostar motherboard onboard nvidia graphics amd phenom triple core gig ocz platinum seagate gig sata hd lg dvd sata burner secure disk leadtek tv expert pci tv tunervideo capture card saved money case emachines black silver micro atx laying around bad under definitely off shelf system same price
1627	19	312647	2884722	2884309	mainspark	10/17/08 11:12 PM	1.22428512E12	how old old	present machine four years old everything maybe update machine amd completely vista maybe someone could convince otherwise let obvious advantages doing
1627	20	312647	2884797	2884309	ellis feigenbaum	10/18/08 1:53 AM	1.22429478E12	under months	decided advent walking talking grandchildren needed something could video editing work built relative monster started intel dx bt motherboard combined ddr memoryand cpu added pair ati crossfire added pvr videotv card hdds dual dvd drives memory card reader chakra case put whole thing together asus pw monitorsthe most sexy looking monitors opinion ever good measure good looks dinovo edge keyboard mx revolution mouse black beauty runs vista ultimate sp never problems iti imagine unless gets stolen machine through next windows os possible exception upgrading cpu series
1627	21	312647	2884775	2884309	melvynlaycock	10/18/08 2:05 AM	1.2242955E12	notebook months old	acer dual core notebook gb ram running vista home premimum happy machine
1627	22	312647	2884798	2884309	Flirkann	10/18/08 2:09 AM	1.22429574E12	less year	toshiba satellite acquired january ghz gb ddr gb drives hdromdl burner abg wifi mb hd mobile video chipset thoroughly exorcised vista xp sp help driverpacksnet nlite battery life israther pitiful compared ibook refurbished granted ibook full power cpu uses power itself got gaming ability
1627	23	312647	2884780	2884309	Jim Manchester	10/18/08 2:40 AM	1.2242976E12	computer	week ago bought desktop dell dealer gbp age probably years windows xp professional wanted change previous machine windows purchase mb ram gb disk doesnt cd burner could few pounds use computer mainly web browsing word processing radio streaming plays video use function wondered whether should risk could turn waste money turned best bargains ever old pc wouldnt accept data transfer wizard tranferred most stuff needed gb flash drive emailed stuff myself pictures stored photo processing site downloaded different computer theres way round problem done free online virus check buy everythings fine unless latest bells whistles secondhand pc seems great buy
1627	24	312647	2884781	2884309	PatrickRsGhost	10/18/08 2:41 AM	1.22429766E12	yearold dell	go ahead laugh sixyearold dell dimension intel celeron ghz processor windows xp floppy drive those people use anymore havent ages upgrades made adding gb ram memory external dvdrw drive thing chugs along pretty thinking upgrading soon once finances become available
1627	25	312647	2884783	2884309	m7842g	10/18/08 2:59 AM	1.22429874E12	years old	dell dimension running win xp sp office xp etc looking ahead months win sp probably bit pc replacement legacy peripherals sware
1627	26	312647	2884784	2884309	dgn1956	10/18/08 3:01 AM	1.22429886E12	sony viao	sony viao rd hard drive pentium ghz gig ram maxium pc gig hard drive use apc ups bought
1627	27	312647	2884816	2884309	NJGoodliffe	10/18/08 3:08 AM	1.22429928E12	year old pc	built small pc company gmt compters ltd gb memory os windows xp home works bit slow times added internal drive plus external drive backup
1627	28	312647	2884817	2884309	dave-shaz	10/18/08 3:15 AM	1.2242997E12	rig	build gaming rig great pc amd gig ram os xp pro os vista ultimate bit nice os dx gax tdq mb cpu twin dhx ram gig hdd hishd gpu extra zalman mm fans pioneer dvd sata antec true power quattro wt thermal take armor case worth every great gaming machine looking build rig highly recommend set upsometime sooner mb coming thats mother board wow check subwebaddr
1627	29	312647	2884819	2884309	Madnut1	10/18/08 3:15 AM	1.2242997E12	how old	old dinosaurs old ibm netvista meg ram raddon vid card evicta sound card works
1627	30	312647	2884832	2884309	Riker_1	10/18/08 4:18 AM	1.22430348E12	home build	intel quad cpu gig memory zotac nvidia graphics card stripedraided gig drives windows sit gig hdd games sit ext turnal hdd water cooled goes wind super cool called super games grid crysis cool house temp baking mode
1627	31	312647	2884836	2884819	exsencon	10/18/08 4:26 AM	1.22430396E12	how old	got dell computers almost years ago yesi dell desktop dimension ghz gbram hd gb nvidia graphics dell laptop inspiron gb ram gb hd radeon xpress graphics must say machines perform quiet taking account dell particulars came winxp prof installed looking around decided against win vista went linux instead good experience initial trial error stuffrunning smoothly multiboot between winxp linuxes divided between pcs happy man
1627	32	312647	2884875	2884309	terrierterrorNH	10/18/08 4:59 AM	1.22430594E12	months counting	month old acer aspire laptop runin vista home premium gb ram love left xp behind week everything xp vista
1627	33	312647	2884873	2884309	earthrabbit39	10/18/08 5:23 AM	1.22430738E12	how old main computer years	dell inspiron shipped using xpmostly email photo voipcomputer serious melt down while under extended warranty dell came house repair trips italy dominican republic plus thousand hours use home starting worriedand while computer served extremely computer purchase near futurea waiting research
1627	34	312647	2884882	2884309	DRDRJAY	10/18/08 5:33 AM	1.22430798E12	brand spring	dell precision laptop gb ram gb sata hd wuxga ghz core duo extreme usb built wireless blue tootheverything communication anything fast
1627	35	312647	2884897	2884309	Fritz the cat	10/18/08 5:37 AM	1.22430822E12	year old powermac agp graphics thats going	latest nor greatest several years doing good job use old girl helped maxing her ram mb sdram sticks making total gb ram replacing her old powerpc mhz proccessor ghz processor giving her graphics cards being ati agp pro card being ati pci card monitors inch widescreen hp lcd monitor inch hp lcd monitor inch samsung lcd monitor old inch ge tv play most movies given her internal gb replacing single gb hardrive her replaced original zip drive geethree sweet multiport she uses original apple airport card big gamer movie nut mostly play several dvds divx xvid itunes quicktime movies her plus casual web browsing she hard work encoding videos over xgrid older imac witch recently upgraded gb ancient technology say yes job done hell yeah xd those running tiger last great os powerpc architecture
1627	36	312647	2884898	2884639	Rickanne	10/18/08 5:39 AM	1.22430834E12	why reformat often	seriously why conventional hard drives many good reformats cddvdrw erase certain number times before good ever tried using something ccleaner how disk cleanup disk defrag reformatting keeps thing fast every time reload games programs apps unless complete hard drive backup images use ccleaner revo uninstaller clean junk remove unused programs discretion without leftover registry entries keeps vista pc running quickly day built run intel core duo ghz gigs ddr mhz geforce graphics card gb sata ii hard drive ultimately choice above programssuggestions computing life little easier
1627	37	312647	2884899	2884309	at78rpm	10/18/08 5:40 AM	1.2243084E12	mines	use thinkpad every day least hours works beautifully hard drive died last year surprised thinkpads normally synonymous quality actually blessing disguise put gb hd installed ubuntu ubuntu takes advantage fun stuff thinkpad way miss windows machine ghz processor gb ram exceeded expectations every way talk workhorse
1627	38	312647	2884909	2884309	j7173	10/18/08 5:56 AM	1.22430936E12	years kicking	built thing runs although slowlyjust recently started blue screen death hardware failure come every often buid soonpentium ghzhalf gig mem gig harddrive really old graphics card mb mem
1627	39	312647	2884910	2884309	LouCap	10/18/08 5:57 AM	1.22430942E12	ones	bought mac book pro few months back main office computer yes went tot he dark side hey works bought wife acer aspire netbook use around house while surfing internet prior getting machines our laptops acer toshiba years truth told use year old toshiba heavy lifting home
1627	40	312647	2884923	2884309	Phil Crase	10/18/08 6:03 AM	1.22430978E12	desktop	main tower clone gigabyte mb intel dual core gb ddr mb vid gb wd hdd blaster sound card antec mid tower watt supply running win xp professional runs
1627	41	312647	2884925	2884309	Carizma22	10/18/08 6:04 AM	1.22430984E12	years old	god moornin titanium powerbook apple mhz mostly use wordprocessing surfing internet functionality intel apples able run windows applications use virtual pc runs really slowly screen tiny loved computer ones beforei macs ram interested line apple laptops yet laptop computer swithering between portability macbooks bigger screen macbookpro need power though price difference significantor maybe stick until wont need carole
1627	42	312647	2884927	2884897	Carizma22	10/18/08 6:09 AM	1.22431014E12	upgrading processor	upgrade processor titanium powerbook mhz carole
1627	43	312647	2884930	2884925	Carizma22	10/18/08 6:14 AM	1.22431044E12	oops	good morning meant
1627	44	312647	2884932	2884618	nerv2010	10/18/08 6:18 AM	1.22431068E12	stats boxes	old box ram wd raptors ati vid xp pro office pro box dual quad core xeon ram wd raptor hd quadro nvs xp pro office pro thing go box video should upgrade quadro fx
1627	45	312647	2884934	2884781	nerv2010	10/18/08 6:25 AM	1.2243111E12	chugging none	hey laugh works old year old box use occasionally mostly wipe old usb makes too easy
1627	46	312647	2884936	2884634	nerv2010	10/18/08 6:28 AM	1.22431128E12	welcome dark side	love amd converts ah ha ha nice rig built though yet scavenged parts old box
1627	47	312647	2884938	2884309	jpprice47	10/18/08 6:34 AM	1.22431164E12	brand spanking	years finally went back apple got intelbased macbook use windows run simultaneously vmware fusion
1627	48	312647	2884955	2884309	maldelus	10/18/08 6:36 AM	1.22431176E12	year pc	dell dimension changes added liteon bluray drive ati sound card gb memory replaced crt monitor dell flat panel
1627	49	312647	2884941	2884309	wheelnut53	10/18/08 6:41 AM	1.22431206E12	oldie goodie	lucky friend who steered rite direction off top he told pcs cars compaq die hard went store list wanted needed computer gig ram cdrewrite dvd playerburner etc gave bootleg windows os yrs later original part mobo cut holes side panel added additional ram fans lights recently heatsink fan found thermal gel accident actually purchase before needed learned lotjust ask count ram
1627	50	312647	2884944	2884309	Misha331	10/18/08 6:51 AM	1.22431266E12	how old	main work desktop twoyear old intel imac running beautifully dualboot ability allowing switch win xp simple restart
1627	51	312647	2884949	2884309	Joshua Kwoon	10/18/08 7:06 AM	1.22431356E12	thinking getting	nolongersold dell inspiron handmedown mother last year running xp media center edition she using inspiron running vista home basic eyeing dells xps laptops lately deciding between xps
1627	52	312647	2884980	2884309	psharer4062	10/18/08 7:07 AM	1.22431362E12	runnng	built own computer builit put intel board recently within year put dp board optical drives ram runnng vista ultimate love laptops xbox wireless wires network except ones comming houselol
1627	53	312647	2884981	2884694	psharer4062	10/18/08 7:14 AM	1.22431404E12	smart move reformett	set right yu loose nothing same thing extra dfew drives store important data photos word documents etc reload reload os drivers
1627	54	312647	2884970	2884309	finalquest	10/18/08 7:34 AM	1.22431524E12	old running fine	usually build own boxes really gotten upset constant unneeded changes amd athlon xp cpu soyo dragon mb gig ram gig wd hd ati agp graphics creative labs sound xp os keep alive serves graphics work working pcs dawn tandy home computer heck osborne gets how weve become slave os rather way around every upgrade comes microsoft required substantial hardware upgrade creates incredible surge waste stream question everyone really need computing power average home user never hits limit their pcs capability theyre doing sending emails surfing net done cheap less power hungry boxes laptops recall favorite software bundle time geoworks run aol actually their gui before switching windows geoworks everything home user needed people chase technology over time how money spend doing really need power ever reach full capability pc average home user providing youre high order fragging take care
1627	55	312647	2884987	2884309	philipmm	10/18/08 7:39 AM	1.22431554E12	less year	system model intel corporation enclosure type desktop processor gigahertz intel pentium kilobyte primary memory cache kilobyte secondary memory cache windows xp home edition service pack build main circuit board board intel corporation gcpe aad serial number azpe alf bus clock megahertz bios intel corp pe drives memory modules cd gigabytes usable hard drive capacity gigabytes hard drive free space elby dvdrom scsi cdrom device cdrom drive hldtst dvdram gh np cdrom drive seagate freeagent go usb device hard drive gb drive st hard drive gb drive megabytes installed memory slot empty slot mb serial number local drive volumes ntfs drive gb gb free ntfs drive gb gb free ntfs drive gb gb free ntfs drive gb gb free ntfs drive gb gb free
1627	56	312647	2885014	2884309	Bruce Pattinson	10/18/08 8:07 AM	1.22431722E12	rehow old current main computer	motherboard cpu type intel pentium iiie mhz motherboard name aopen ax pro isa pci agp amr dimm audio motherboard chipset via vt apollo pro system memory mb sdram bios type award modular communication port communications port com communication port communications port com display video adapter nvidia geforce mx microsoft corporation mb accelerator nvidia geforce mx monitor aoc elra elra crt
1627	57	312647	2885009	2884309	gthopper	10/18/08 8:11 AM	1.22431746E12	trouble downloading updates software	windows xp home edition hp pavilion system number dm aaba serial number mxk mw need tell where find computer illiterate most problems probably own computer strictly home use disabled pay bills line confer doctor recieve reports results test appointments look medicines supplements nothing harm age automatic security update most time doesnt work show being installed update history addremove programs trying right install day trail antivirus days long time limitedfixed income far error report start over error idea errors why follow instructions thinking should simple doesnt happen computer too old too old stupid help maybe couple suggestions
1627	58	312647	2885029	2884309	techgeek44	10/18/08 8:28 AM	1.22431848E12	mac pro way	past spring decided id crashes maintenance issues microsoft windows based machinesbeen using over years decided try switch apple product bought mac mini learned how use os sold mini friend purchased mac pro dual ghz processors installed gbs ram never looked back powerfulos runs smoothly everything windows machines without hassles hd video editing photo editing gaming fun os hardware perfect close perfection modern technology allows
1627	59	312647	2885057	2884309	jrdinger	10/18/08 8:51 AM	1.22431986E12	oldie goodie	running heavily worked over digital audio mac upgraded radeon pro drive controller gig drives maxed ram gigs ghz upgrade card game machine needs spectacular love machine worth every penny
1627	60	312647	2885059	2884309	lsippell	10/18/08 8:51 AM	1.22431986E12	getting old fairly good	built computer aug consist dual boot xp pro vista ultimate use xp asus wd premium motherboard intel pd ghz mm processor dualcore asus silent square cpu fan heatsink gb ddr sdram kingston kst dii memory gb kingston cf card readyboost vista nvidia en gthtdp video card dual monitor setup nvidia en gtshtdp use hdtv western digital wd yd sata hds seagate st ns sata hds seagate st sata hd total terabyte hd storage optiarsc ad sata dvd rw drive nec ad sata dvd rw drive sony dvdrom ddu atapi drive rosewill rc sataii pci card needed sata ports rosewill pci usb card lian li clear side case rosewill modular power supply need upgrade soon
1627	61	312647	2885060	2884309	jorge.arias.g	10/18/08 8:54 AM	1.22432004E12	always toshiba	old system years old laptop toshiba satellite intel dual core ghz display gb ram ghz hdd dvdcdrw dual layer builtin speakers windows xp pro system month old laptop toshiba satellite intel core duo ghz display gb ram ghz hdd dvdcdrw super multi harman kardon builtin speakers fm tuner fusion finish windows vista home premium
1627	62	312647	2885074	2884309	prankster506	10/18/08 9:14 AM	1.22432124E12	year old	year old macbook best computer ever owned while friends dealing hardware faults windows vista single problem full blown apple convert
1627	63	312647	2885077	2884309	tigerkitty2	10/18/08 9:18 AM	1.22432148E12	year old former hotrod	built current main box fast pretty darn skippy leading edge quad core ocd ghz zalman cpns led cpu cooler gigs ocz pc asus ne sli mobo evga geforce gts meg gig wd caviar boot drive gig wd caviar storage drives sata pioneer dvd burner ide pc power cooling watt power supply enermax chakra case
1627	64	312647	2885093	2884309	TrackStar1682	10/18/08 9:30 AM	1.2243222E12	years old albeit mega upgraded	alienware area got back although taken many upgrades practically same machine houses gigabyte gaep ds motherboard intel core duo gb ddr crucial ballistix tracer ram gigabyte geforce gt graphics card gb hard drives dvd rw drive lg bluray hddvd drive use gb external drive stuff problems reformatting easy although highly sick probably wont while
1627	65	312647	2885108	2884309	dwct18	10/18/08 9:34 AM	1.22432244E12	how old computer	hi everybody current main computer years old december working fine problem dwct
1627	66	312647	2885095	2884309	Ardy Mattox`	10/18/08 9:35 AM	1.2243225E12	main computer month old toshiba	toshiba laptop gigs ram gig hard drive dual core fairly speedy vista trouble computer trouble vista pretty love laptop business requires extras hp laptop years old repair problems older fujitsu never problem xp laptops travel need portability
1627	67	312647	2885133	2884309	MrGeek2U	10/18/08 9:57 AM	1.22432382E12	poll how old current main computer	computer glorious years old amd athlon xp ghz gb ram gb hdd pioneer dvd burner lg dvdcdrw yes floppy far great unit experimenting everyday computing beleive matter how old computer matter computer need reasonable speed accuracy large drives lot photo video machine built ordered parts problems didnt cause myself computer industry full hype bigger faster didnt wouldnt business long works fix replace unless really need look hard enough caan find parts older machines cdn
1627	68	312647	2885135	2884309	swamprat	10/18/08 10:02 AM	1.22432412E12	kind computer	katrina acerpower intel modified local microsource shop trouble free quick enough xp use freeware such open office serif graphics why pay stuff free works
1627	69	312647	2885137	2885135	roothlus	10/18/08 10:08 AM	1.22432448E12	old	years hp pavilion desktop years ghz came ramexpanded massive gb max gb hardriveplus gb external least made wood lol
1627	70	312647	2885146	2884309	1AlexH1-22315841281810626925815761762739	10/18/08 10:13 AM	1.22432478E12	how old pc dog years cat years	main desktop hp pavilion bought december week upgraded gb ram leaping around olympic jumper great machine seems showing age ghz gb ram gb hd cddvd rw burner stuff seems brandy though works charm laptop less year runs vista sp newborn problems acer aspire joy use alas picked trojan going rebuild take afternoon back business theyre truly making machines days thanks easier deal problems ever year old hp desktop pavilion gt yea old acer aspire laptop couldnt happier hardware once please forgive glaring spelling errors
1627	71	312647	2885182	2884309	hilkap	10/18/08 10:51 AM	1.22432706E12	main computer over years old	pc club amd meg dual hard drives cd drive dvd drive xp sp never reinstalled xp
1627	72	312647	2885191	2884309	x.killeddestiny.x	10/18/08 11:17 AM	1.22432862E12	compaq presario sr	month old best pretty nice expandable computer bucks
1627	73	312647	2885209	2884309	bagthepi	10/18/08 11:29 AM	1.22432934E12	mac gateway pc laptop over years old	mac primary desktop bought replaced mac performa over years runs top upgraded os leopard eventually replace mac pro laptop bought gateway never problem upgraded cdrw dvdrw last year added ram done nothing hardware runs bought pc needed portability msn keep clients happy mac ill upgrading mac laptop next year
1627	74	312647	2885219	2885209	1AlexH1-22315841281810626925815761762739	10/18/08 12:16 PM	1.22433216E12	how old	remarkable learn technology become able manage rather immediately say gotta stuff mac windows machine indeed learning thanks fora locations share information ideas suggestions folks without trumpets walked quietly information age nice place relax sit learn others teach qualified thanks whom learning working pcs computers give away how old really ltbggt info age actually nice place spend time
1627	75	312647	2885246	2884309	lostinnw	10/18/08 12:39 PM	1.22433354E12	older dirt	embarassing compaq presario mb ram celeron processor works fine doing upgrade soon video
1627	76	312647	2885283	2884309	Doh_1	10/18/08 1:38 PM	1.22433708E12	latest desktop computer	older dell our second computer wife starting college course wanted her able use our faster newer computer working home using decided should newer computer couple months ago retire older dell buy computer last few years usually pay little something last little longer time dell xps ghz quadcore processor mb cache fsb ghz memory gb mhz ddr gb sata hard drive desktop works great windows vista happy enough horsepower feel fast least couple years roger
1627	77	312647	2885323	2884309	jennywren1420	10/18/08 2:37 PM	1.22434062E12	years	mac desktop models called sawtooth running os could six seven eight years old too busy enjoying remember became acquainted sort poky care wanted change could old monochrome laser printer predates computer going back old powerpc days os
1627	78	312647	2885370	2884309	John_Locke77	10/18/08 3:40 PM	1.2243444E12	windows	exactly how old aunt gave she bought computer hp pavilion pentium iii processor mb ram thing every time restart few times week puts outlook express shortcut desktop annoys use outlook express heve delete
1627	79	312647	2885401	2884309	lane102	10/18/08 4:45 PM	1.2243483E12	almost years months old	dell dimension ghz gig hd beautiful monitor came windows mehorrible mb memory added xp memory mb oh came modem dialup access keep clean tuned serves
1627	80	312647	2885432	2884309	rnemefe	10/18/08 5:46 PM	1.22435196E12	how old main computer	gateway model pc
1627	81	312647	2885460	2884309	JCipo	10/18/08 6:25 PM	1.2243543E12	how old computer	found difference year day night computers using vista old expensive unit took forever start shut down cheaper quick best thing jump thru hoops run old programs older computer newer runs programs without problem years ago computer cost thousands dollars expensive upgrade adays pretty good machine gamer need machine number places who build super last good long time
1627	82	312647	2885510	2884309	atm4940	10/18/08 8:22 PM	1.22436132E12	current main computer	main computer twoyearold toshiba laptop fourth personal computer early toshiba inexpensive little laptop proven extremely fast incredible memory capacity secondary laptop eightyearold gateway works remarkably
1627	83	312647	2885552	2884309	back_water_tech	10/18/08 10:39 PM	1.22436954E12	year old brown box	love playing stuff built many pcs long line starting show age however todays standards right old games play old honestly web office applications fine three years ago built dreaming dual core system christmas lol
1627	84	312647	2885553	2885432	back_water_tech	10/18/08 10:42 PM	1.22436972E12	thats awesome	love seeing older pcs kicking wish many faithfull years service
1627	85	312647	2885548	2884309	lynjs	10/18/08 11:28 PM	1.22437248E12	pc months old	pc months old though hate hp asking why buy thats catch didnt someone buying something take money bought sony pc question custom series hp gig using vista prior hp purchased mhz using windows basically skipped over xp thing where folk preferred vista prefer windows os though vista fine
1627	86	312647	2885809	2884309	Hollea	10/19/08 9:11 AM	1.22440746E12	yrs older	gateway laptop running win se gb hard drive mb ram works good runs good problems order income tax online year upgrade buy computer got hp pavillion dv media centre pc tv gb ram gb hard drive use
1627	87	312647	2885819	2884309	angellica71	10/19/08 9:24 AM	1.22440824E12	oldie good	reply question machines intel chip things add extra cdrom drive flat screen never given trouble probably wont either stay pretty schedule keeping run efficient
1627	88	312647	2885962	2884309	Terdog	10/19/08 12:12 PM	1.22441832E12	how old current computer	home built pc most machine year old done upgrades build computer running dual core nvidia gts video card bought video card march sapphire radeon hd august upgraded cpu quad core those upgrades pretty same using xp pro operating system tried vista hated went back xp
1627	89	312647	2886024	2884309	wljones	10/19/08 12:52 PM	1.22442072E12	oldest best those own use	bought linux preloaded computer cyclox apparently business never contaminated microsoft software run several variations iterations linux ready retirement yet
1627	90	312647	2886026	2884309	Shadowfax7	10/19/08 12:53 PM	1.22442078E12	years going strong	ghz emachines wallyshop model finally upgraded memory recently wimpy mb adding gb gb hard disk original mods adding mb agp card replacing power supply years ago between son myself run machine between hours day days year
1627	91	312647	2886132	2884898	bush4rat8kizzy	10/19/08 3:12 PM	1.22442912E12	totally agree	using clean vigor laptop bought lots cleanup using ccleaner defraggler same co revo killer cleaner without doing anything else laptop works could offload whole lot without having reformat try youll
1627	92	312647	2886153	2884309	bush4rat8kizzy	10/19/08 3:27 PM	1.22443002E12	off grid desktop replacement	living offgrid landlines likely lifetime got gamers artorius laptop vigor mo old desktop replacement loads upgrades addons seller left almost his stuff cleaning alot using ccleaner defragglersame site revouninstaller too stuff sharing reformat os month runs except startup abit slow rid ofand live happily bugs old slow brain
1627	93	312647	2886330	2884309	oldhouseman	10/19/08 9:31 PM	1.22445186E12	NIL	dell precision workstation dual xeon processor got graphics work lot photography work old photos especially old aerial photos tend pretty big mb larger start manipulating extract files grow decided wanted graphics workstation pros their work happy decision works nice job pretty fast downside bit os sometimes finding things work hard far always managed
1627	94	312647	2886385	2884309	malcolmb3	10/19/08 11:20 PM	1.2244584E12	year old	assembled over ten years ago usually upgrade until motherboard handle replace mb consider pc though old stuff stays fourth running vista home premium sp amd athlon dual core gigs ddr pc gig hard drive dvdrw disc driveburner watt power supply sb audigy ati pro pcie altec lansing speakers pcs old sound great inch wshd lcd monitor apc ups cordless mouse cheapo keyboard gamer media tend buy middle line competitivly priced stuff ordered amd dual core gigs ram bit upgrade vista lead sound card powerful video card problem intel processors except price
1627	95	312647	2886429	2884309	Gordon Wileman	10/20/08 2:04 AM	1.22446824E12	how old computer	computer almost six years old compaq presario behaved faultlessly encouraging buy sh compaq deskpro en run mandriva linuxyhe presario came xp home edition
1627	96	312647	2886432	2884309	doc1947	10/20/08 2:29 AM	1.22446974E12	six year old generic desktop	amd gig athlon hard drives total storage space running xp everything need retired photoshop cs box replace old model until use anymore
1627	97	312647	2886676	2884309	Bharat Puri	10/20/08 8:48 AM	1.22449248E12	computer	hp compaq presario computer xp windows four years old gb hard disk ram dvd writer combo drive working prefectly though times problem windows reinstall windows otherwise proble bharat
1627	98	312647	2886769	2884309	slong3	10/20/08 10:41 AM	1.22449926E12	wow almost year old name pentium ghz	put together using best components day works use
1627	99	312647	2886934	2884309	sheaverbaan	10/20/08 1:23 PM	1.22450898E12	golden oldies	although months old computer year go old sony vaio years old running sunshine
1627	100	312647	2886998	2885370	John_Locke77	10/20/08 2:33 PM	1.22451318E12	original post forgot mention	years old windows installed original owner guessing years old
1627	101	312647	2887132	2884309	Nightmares0nwax	10/20/08 5:27 PM	1.22452362E12	years	years mother board years old asus mvp delux great board supports dual channel amd athlon slow reliable gb crucial pc ddr single channel problems mhz ati radeon xtx ace card fps games ati teh way creative soundblaster xfi xtreme fidelity poor wont buy creative seagate barracuda gb ide probs asus ide dvdcd rw never really worked last time reformatted dec last year works brand hardware issues xtreme fidelity souncard causes post failure time time dvd drive stopped playing copied dvds dvd roms play fine apart antec case falling apart fine replace abit motherboard lasted year pissed off say least
1627	102	312647	2887389	2884309	fishandgrapes	10/21/08 6:28 AM	1.22457048E12	older pc	branded packard bell made nec cost dollars four years ago incuding nice tft high street chainstore windows xp home gig disk less trouble anything else use smart technically gets glitchy while anyone else uses always found shared pcs paranormal interaction dodgy web visits meg ram thing didnt cope photos upgrade myself made huge difference gaming massive video rather read book musicloving son says next computer should mac look friendly why howard devon uk
1627	103	312647	2887416	2886330	nerv2010	10/21/08 6:57 AM	1.22457222E12	workstation user	reading numerous posts relieved workstation user starting were gamers vintage pc users ah ha ha
1627	104	312647	2888229	2884309	aximuser	10/22/08 3:03 AM	1.22464458E12	year old custom made pc running vista	main pc over years old setup dual boot pc running vista home premium xp spend most time running vista vista runs really pc gb ram ati video card mb ram cpu intel ghz single core hyperthreaded processor pc proof run vista fine older pcs
1627	105	312647	2888555	2884309	bush4rat8kizzy	10/22/08 9:49 AM	1.22466894E12	dell laptop yrs	using machine daily upgraded far motherboard email ebay weather pogokeep clean ccleaner defraggler revo occasional scan eset avg free cnet mbram photos vigor laptop gamers lots room memory boots linux watching dvd tv without using windowsxp great battery life yrs old min hrs time keepin clean keeps em workinhave reformatted dell once
1627	106	312647	2888934	2884309	tourist97	10/22/08 2:37 PM	1.22468622E12	gateway stinks wheres computer lemon law	bought dua quad gateway best buys came supposed fastest computer could buy runs vista crashes constantly slow freezes start makes noise battered being sent gateway times repairs admit nothing send back pointed memory supposed gigabytes adn duo quad processers simply removed stickers proclaimig facts computer deny possible gateway nepal etc hummmmmmmmmmmmm cow spot box computer gasteway imbedded design advertiement gateway website advertising best buy fries stores best buy advertisemtn receipt too corporate office sneered hung several times say signed warranty gave rights sue warranty instructions say gateway openly said never fix say toshibas laptop bounced over including india tibet nepal cambodia nepal works old computer works maybe best keep use anyway gateway lemon year love expose sue their butts hate gateway
1627	107	312647	2890061	2884309	damasta55r	10/23/08 11:54 PM	1.22480604E12	years old	intel pentium gb ddr gb hard drive windows xp pro nvidia gt runs great faster laptop months amd turion gz gb ddr gb hard drive windows vista home premium ati integrated graphics
1627	108	312647	2890841	2884309	Neuro59	10/24/08 6:50 PM	1.2248742E12	brandspankingless year	flip hardware alot parts main rig few years old harddrives most years old came back amd running phenom gx motherboard gb ram gb raid hdd os gb storage drive silverstone modular psu his hd video card sold qdeluxe build
1627	109	312647	2893159	2884309	graeme.a.dixon	10/27/08 3:20 PM	1.2251208E12	pc hp xw	happy hp xw workstation purchased similar price desktop samsung wide screen monitor attached find having built hard drives handy keeping data drive op system especialy respect unstable vista week reinstall completely installed media card reader dirt cheap added linksys series wireless adapter fast wireless broadband connection makes look snail trouble upgrade wireless adaptors pcs cheers graeme
1627	110	312647	2894740	2884309	Queenwoman	10/29/08 11:04 AM	1.22527824E12	dell dimension	dell dimension year old
1627	111	312647	2895439	2884309	gregguysinger	10/30/08 7:59 AM	1.22535354E12	old good enough development	hp vectra vl served late should max ram most though os name
1627	112	312647	2941211	2888934	igotthelemon	1/1/09 8:57 AM	1.23080022E12	lemon law	find cimputer lemon law advice subwebaddr
1627	113	312647	2941651	2884309	FrankQC	1/1/09 6:38 PM	1.23083508E12	less year	got laptop near april hp pavilion dv ca direct diagnostics processor ghz core duo memory mb os microsoft windows vista home premium display nvidia geforce gs subwebaddr
1627	114	312647	2942640	2888934	mgand	1/3/09 9:10 AM	1.2309738E12	good info	good information post ill same mistake
1627	115	312647	2945324	2884309	Sharon Salter	1/6/09 3:31 PM	1.23125586E12	value old computer	where find value old computerprobably years old
1627	116	312647	2950022	2884309	chickenorfish	1/12/09 7:23 AM	1.23174498E12	dell xps	year old dell xps having problems vista put xp having vid card problems got year warranty dell covered dell xps win xp sp widescreen dell lcd ghz quadcore gt mb gpu gb rps seagate integrated audio gb ram mhz dvd rw year old laptop dell inspiron lcd amd tk gb ram integrated mb gpu gb rpm seagate wifi inspiron play team fortress fps enough keep sane traveling vacation
1627	117	312647	2950351	2884309	MarkFlax	1/12/09 12:01 PM	1.23176166E12	mgand post deleted	post included advert contravenes forum policy thats why deleted mark
1627	118	312647	5075993	2884309	Turtle50112	2/3/11 12:25 PM	1.2967359E12	old current main computer	abit nf mobo amd athlonxp running mhz mb ddr ram mb ati radeon wdc gb internal running win ultimate tb usb seagate freeagent hpdvd samsung syncmaster mb flat screen monitor sb audigy soundcard logitech figure yrs old
